(dp0
S'template int32_t abcOP_true(MethodEnv*, String*);'
p1
I883
sS'template void abcOP_pushscope(MethodEnv*, double);'
p2
I16956
sS'template double abcOP_modulo(MethodEnv*, double, ScriptObject*);'
p3
I1
sS'template String* abcOP_coerce_s(MethodEnv*, Namespace*);'
p4
I1
sS'template void abcOP_initproperty(MethodEnv*, Multiname*, LLVMUnusedParam, LLVMUnusedParam, ScriptObject*, double);'
p5
I4614
sS'template MethodEnv* abcOP_methodEnvFromDispId(MethodEnv*, ArrayObject*, int32_t);'
p6
I83661
sS'template LLVMBool abcOP_greaterthan(MethodEnv*, LLVMAtom, LLVMAtom);'
p7
I2517
sS'template LLVMAtom abcOP_nextvalue(MethodEnv*, LLVMAtom, int32_t);'
p8
I22525
sS'template void abcOP_setproperty(MethodEnv*, Multiname*, String*, LLVMUnusedParam, ScriptObject*, LLVMAtom);'
p9
I107
sS'template void abcOP_setproperty(MethodEnv*, LLVMMultinamePtrMaybeInt, int32_t, LLVMUnusedParam, ArrayObject*, ArrayObject*);'
p10
I51
sS'template String* abcOP_String_replace(MethodEnv*, String*, LLVMAtom, LLVMAtom);'
p11
I3738
sS'template LLVMAtom abcOP_getproperty_nonc(MethodEnv*, LLVMMultinamePtrMaybeInt, double, LLVMUnusedParam, ArrayObject*);'
p12
I673
sS'template LLVMAtom abcOP_getproperty_nonc(MethodEnv*, Multiname*, LLVMUnusedParam, LLVMUnusedParam, ScriptObject*);'
p13
I3205
sS'template LLVMAtom abcOP_getproperty(MethodEnv*, Multiname*, String*, LLVMUnusedParam, ScriptObject*);'
p14
I1276
sS'template void abcOP_setproperty_nonc(MethodEnv*, LLVMMultinamePtrMaybeInt, int32_t, LLVMUnusedParam, ArrayObject*, double);'
p15
I57
sS'template void abcOP_setproperty_nonc(MethodEnv*, LLVMMultinamePtrMaybeInt, double, LLVMUnusedParam, ScriptObject*, int32_t);'
p16
I31
sS'template void abcOP_setproperty(MethodEnv*, Multiname*, LLVMBool, LLVMUnusedParam, LLVMAtom, int32_t);'
p17
I1
sS'template ScriptObject* abcOP_coerce(MethodEnv*, Traits**, LLVMAtom);'
p18
I550996
sS'template int32_t abcOP_bitnot(MethodEnv*, int32_t);'
p19
I200
sS'template void abcOP_setproperty_nonc(MethodEnv*, LLVMMultinamePtrMaybeInt, int32_t, LLVMUnusedParam, ArrayObject*, String*);'
p20
I40068
sS'template LLVMAtom abcOP_callproperty(MethodEnv*, Multiname*, LLVMUnusedParam, LLVMUnusedParam, ArrayObject*, uint32_t, ...);'
p21
I102
sS'template Namespace* abcOP_loadnamespace(MethodEnv*, uint32_t);'
p22
I5930
sS'template void abcOP_nullcheck(MethodEnv*, double);'
p23
I65
sS'template void abcOP_setproperty_nonc(MethodEnv*, LLVMMultinamePtrMaybeInt, int32_t, LLVMUnusedParam, LLVMAtom, LLVMAtom);'
p24
I501
sS'template double abcOP_getproperty_nonc(MethodEnv*, LLVMMultinamePtrMaybeInt, int32_t, LLVMUnusedParam, ScriptObject*);'
p25
I324
sS'template LLVMBool abcOP_deleteproperty(MethodEnv*, LLVMMultinamePtrMaybeInt, double, LLVMUnusedParam, ArrayObject*);'
p26
I43
sS'template int32_t abcOP_sxi8(MethodEnv*, int32_t);'
p27
I75
sS'template int32_t abcOP_getproperty(MethodEnv*, LLVMMultinamePtrMaybeInt, uint32_t, LLVMUnusedParam, ScriptObject*);'
p28
I9
sS'template void abcOP_setproperty(MethodEnv*, LLVMMultinamePtrMaybeInt, LLVMAtom, LLVMUnusedParam, ArrayObject*, int32_t);'
p29
I2
sS'template Namespace* abcOP_coerce(MethodEnv*, Traits**, LLVMAtom);'
p30
I9069
sS'template ScriptObject* abcOP_newactivation(MethodEnv*);'
p31
I35130
sS'template double abcOP_getproperty_nonc(MethodEnv*, LLVMMultinamePtrMaybeInt, uint32_t, LLVMUnusedParam, ScriptObject*);'
p32
I1
sS'template LLVMAtom abcOP_String_lastIndexOf(MethodEnv*, String*, String*, int32_t);'
p33
I1
sS'template LLVMAtom abcOP_box(MethodEnv*, ScriptObject*);'
p34
I1975390
sS'template LLVMBool abcOP_strictequals(MethodEnv*, ScriptObject*, ScriptObject*);'
p35
I2905
sS'template double abcOP_convert_d(MethodEnv*, uint32_t);'
p36
I29706
sS'template LLVMAtom abcOP_String_replace(MethodEnv*, String*, LLVMBool, String*);'
p37
I2
sS'template LLVMAtom abcOP_box(MethodEnv*, ArrayObject*);'
p38
I48120
sS'template LLVMBool abcOP_istypelate(MethodEnv*, double, ScriptObject*);'
p39
I15
sS'template void abcOP_setproperty(MethodEnv*, LLVMMultinamePtrMaybeInt, int32_t, LLVMUnusedParam, ArrayObject*, int32_t);'
p40
I120
sS'template LLVMAtom abcOP_call(MethodEnv*, LLVMAtom, uint32_t, ...);'
p41
I7617
sS'template double abcOP_divide(MethodEnv*, int32_t, uint32_t);'
p42
I26
sS'template int32_t abcOP_getproperty(MethodEnv*, Multiname*, LLVMUnusedParam, LLVMUnusedParam, ScriptObject*);'
p43
I217
sS'template LLVMAtom abcOP_String_replace(MethodEnv*, String*, LLVMAtom, String*);'
p44
I16
sS'template LLVMAtom abcOP_callproperty(MethodEnv*, Multiname*, LLVMUnusedParam, LLVMUnusedParam, String*, uint32_t, ...);'
p45
I56
sS'template LLVMBool abcOP_deleteproperty(MethodEnv*, LLVMMultinamePtrMaybeInt, uint32_t, LLVMUnusedParam, ArrayObject*);'
p46
I49
sS'template LLVMAtom abcOP_coerce_a(MethodEnv*, LLVMBool);'
p47
I31586
sS'template void abcOP_setproperty(MethodEnv*, Multiname*, LLVMUnusedParam, LLVMUnusedParam, ScriptObject*, LLVMBool);'
p48
I31
sS'template LLVMBool abcOP_deleteproperty(MethodEnv*, LLVMMultinamePtrMaybeInt, LLVMAtom, LLVMUnusedParam, ScriptObject*);'
p49
I103
sS'template void abcOP_pushwith(MethodEnv*, int32_t);'
p50
I2
sS'template void abcOP_setproperty_nonc(MethodEnv*, LLVMMultinamePtrMaybeInt, int32_t, LLVMUnusedParam, ScriptObject*, uint32_t);'
p51
I4
sS'template double abcOP_modulo(MethodEnv*, double, LLVMAtom);'
p52
I7028
sS'template LLVMAtom abcOP_callproperty(MethodEnv*, Multiname*, LLVMUnusedParam, LLVMUnusedParam, ScriptObject*, uint32_t, ...);'
p53
I315341
sS'template void abcOP_setproperty(MethodEnv*, LLVMMultinamePtrMaybeInt, int32_t, LLVMUnusedParam, LLVMAtom, LLVMBool);'
p54
I91
sS'template void abcOP_setproperty(MethodEnv*, Multiname*, LLVMAtom, LLVMUnusedParam, ScriptObject*, LLVMAtom);'
p55
I1
sS'template uint32_t abcOP_convert_u(MethodEnv*, int32_t);'
p56
I385981
sS'template LLVMAtom abcOP_getproperty(MethodEnv*, Multiname*, String*, LLVMUnusedParam, LLVMAtom);'
p57
I6473
sS'template void abcOP_setproperty_nonc(MethodEnv*, Multiname*, LLVMUnusedParam, LLVMUnusedParam, ScriptObject*, String*);'
p58
I192
sS'template void abcOP_setproperty(MethodEnv*, Multiname*, LLVMUnusedParam, Namespace*, ScriptObject*, ScriptObject*);'
p59
I3
sS'template LLVMAtom abcOP_add(MethodEnv*, ScriptObject*, int32_t);'
p60
I5
sS'template ScriptObject* abcOP_getproperty(MethodEnv*, LLVMMultinamePtrMaybeInt, uint32_t, LLVMUnusedParam, ScriptObject*);'
p61
I37
sS'template LLVMAtom abcOP_astype(MethodEnv*, LLVMMultinameIndex, ScriptObject*);'
p62
I1
sS'template void abcOP_setproperty_nonc(MethodEnv*, Multiname*, String*, LLVMUnusedParam, ScriptObject*, double);'
p63
I30
sS'template double abcOP_add(MethodEnv*, double, int32_t);'
p64
I1724
sS'template void abcOP_setslot(MethodEnv*, char*, ScriptObject*, String*);'
p65
I637
sS'template LLVMBool abcOP_lessthan(MethodEnv*, double, LLVMAtom);'
p66
I103
sS'template double abcOP_getproperty(MethodEnv*, Multiname*, String*, LLVMUnusedParam, ScriptObject*);'
p67
I2
sS'template void abcOP_setproperty(MethodEnv*, LLVMMultinamePtrMaybeInt, uint32_t, LLVMUnusedParam, ScriptObject*, String*);'
p68
I1
sS'template void abcOP_setproperty(MethodEnv*, LLVMMultinamePtrMaybeInt, int32_t, LLVMUnusedParam, LLVMAtom, String*);'
p69
I437
sS'template double abcOP_Math_floor(MethodEnv*, double);'
p70
I25141
sS'template double abcOP_divide(MethodEnv*, uint32_t, uint32_t);'
p71
I72
sS'template LLVMBool abcOP_lessequals(MethodEnv*, LLVMBool, LLVMBool);'
p72
I4
sS'template LLVMBool abcOP_equals(MethodEnv*, int32_t, int32_t);'
p73
I14535
sS'template LLVMBool abcOP_istype(MethodEnv*, Traits**, ScriptObject*);'
p74
I4914
sS'template double abcOP_modulo(MethodEnv*, LLVMAtom, double);'
p75
I21
sS'template void abcOP_setproperty_nonc(MethodEnv*, LLVMMultinamePtrMaybeInt, double, LLVMUnusedParam, ScriptObject*, uint32_t);'
p76
I2
sS'template double abcOP_getproperty_nonc(MethodEnv*, Multiname*, LLVMUnusedParam, LLVMUnusedParam, ArrayObject*);'
p77
I3
sS'template LLVMAtom abcOP_box(MethodEnv*, LLVMBool);'
p78
I18082
sS'template LLVMAtom abcOP_getproperty(MethodEnv*, Multiname*, LLVMUnusedParam, LLVMUnusedParam, ArrayObject*);'
p79
I70
sS'template void abcOP_setproperty_nonc(MethodEnv*, Multiname*, String*, LLVMUnusedParam, LLVMAtom, ArrayObject*);'
p80
I14
sS'template String* abcOP_add(MethodEnv*, String*, ArrayObject*);'
p81
I392
sS'template LLVMBool abcOP_greaterequals(MethodEnv*, String*, LLVMAtom);'
p82
I1
sS'template LLVMAtom abcOP_astypelate(MethodEnv*, uint32_t, ScriptObject*);'
p83
I24
sS'template LLVMBool abcOP_equals(MethodEnv*, int32_t, LLVMBool);'
p84
I138
sS'template LLVMBool abcOP_strictequals(MethodEnv*, String*, String*);'
p85
I7875
sS'template uint32_t abcOP_getsuper(MethodEnv*, Multiname*, LLVMUnusedParam, LLVMUnusedParam, ArrayObject*);'
p86
I1
sS'template void abcOP_setproperty(MethodEnv*, LLVMMultinamePtrMaybeInt, uint32_t, LLVMUnusedParam, LLVMAtom, String*);'
p87
I62
sS'template LLVMBool abcOP_equals(MethodEnv*, String*, LLVMAtom);'
p88
I244
sS'template void abcOP_pushscope(MethodEnv*, LLVMAtom);'
p89
I13956
sS'template LLVMAtom abcOP_findproperty(MethodEnv*, Multiname*, LLVMUnusedParam, LLVMUnusedParam, LLVMAtom*, int32_t, int32_t);'
p90
I16088
sS'template LLVMAtom abcOP_getproperty(MethodEnv*, Multiname*, String*, LLVMUnusedParam, ArrayObject*);'
p91
I121
sS'template LLVMBool abcOP_greaterthan(MethodEnv*, uint32_t, double);'
p92
I53
sS'template LLVMAtom abcOP_add(MethodEnv*, ScriptObject*, String*);'
p93
I1
sS'template LLVMBool abcOP_equals(MethodEnv*, LLVMAtom, LLVMBool);'
p94
I406
sS'template void abcOP_setproperty(MethodEnv*, LLVMMultinamePtrMaybeInt, uint32_t, LLVMUnusedParam, ArrayObject*, LLVMBool);'
p95
I9
sS'template void abcOP_setproperty(MethodEnv*, Multiname*, LLVMUnusedParam, Namespace*, LLVMAtom, LLVMAtom);'
p96
I369
sS'template LLVMAtom abcOP_getproperty_nonc(MethodEnv*, Multiname*, LLVMUnusedParam, LLVMUnusedParam, LLVMAtom);'
p97
I169232
sS'template LLVMAtom abcOP_String_replace(MethodEnv*, String*, ScriptObject*, String*);'
p98
I8
sS'template uint32_t abcOP_convert_u(MethodEnv*, LLVMAtom);'
p99
I28400
sS'template void abcOP_setproperty(MethodEnv*, LLVMMultinamePtrMaybeInt, int32_t, LLVMUnusedParam, LLVMAtom, int32_t);'
p100
I323
sS'template LLVMBool abcOP_strictequals(MethodEnv*, double, int32_t);'
p101
I54
sS'template double abcOP_Math_cos(MethodEnv*, double);'
p102
I331
sS'template void abcOP_setproperty(MethodEnv*, Multiname*, String*, LLVMUnusedParam, LLVMAtom, double);'
p103
I144
sS'template void abcOP_setproperty(MethodEnv*, LLVMMultinamePtrMaybeInt, uint32_t, LLVMUnusedParam, LLVMAtom, ArrayObject*);'
p104
I2
sS'template LLVMAtom abcOP_getproperty_nonc(MethodEnv*, Multiname*, ArrayObject*, LLVMUnusedParam, ScriptObject*);'
p105
I12
sS'template void abcOP_setproperty(MethodEnv*, Multiname*, LLVMUnusedParam, LLVMUnusedParam, LLVMAtom, int32_t);'
p106
I3408
sS'template double abcOP_modulo(MethodEnv*, int32_t, double);'
p107
I17
sS'template void abcOP_callproperty(MethodEnv*, Multiname*, LLVMUnusedParam, LLVMUnusedParam, LLVMAtom, uint32_t, ...);'
p108
I73622
sS'template LLVMBool abcOP_lessthan(MethodEnv*, LLVMAtom, int32_t);'
p109
I50423
sS'template ScriptObject* abcOP_astypelate(MethodEnv*, String*, ScriptObject*);'
p110
I3
sS'template void abcOP_callproperty(MethodEnv*, Multiname*, LLVMUnusedParam, LLVMUnusedParam, ScriptObject*, char*, ...);'
p111
I9
sS'template LLVMAtom abcOP_String_split(MethodEnv*, String*, LLVMAtom, int32_t);'
p112
I1
sS'template LLVMBool abcOP_lessequals(MethodEnv*, LLVMAtom, uint32_t);'
p113
I2
sS'template LLVMBool abcOP_hasnext2(MethodEnv*, ScriptObject*, int32_t, int32_t*, LLVMAtom*);'
p114
I1
sS'template String* abcOP_esc_xelem(MethodEnv*, ScriptObject*);'
p115
I2
sS'template LLVMAtom abcOP_getproperty(MethodEnv*, Multiname*, LLVMUnusedParam, LLVMUnusedParam, LLVMAtom);'
p116
I326838
sS'template void abcOP_setproperty_nonc(MethodEnv*, Multiname*, String*, LLVMUnusedParam, LLVMAtom, LLVMAtom);'
p117
I280
sS'template void abcOP_setproperty(MethodEnv*, LLVMMultinamePtrMaybeInt, double, LLVMUnusedParam, LLVMAtom, int32_t);'
p118
I62
sS'template void abcOP_setproperty(MethodEnv*, Multiname*, String*, LLVMUnusedParam, LLVMAtom, LLVMAtom);'
p119
I863
sS'template int32_t abcOP_hasnext(MethodEnv*, LLVMAtom, int32_t);'
p120
I1
sS'template LLVMBool abcOP_strictequals(MethodEnv*, LLVMAtom, double);'
p121
I5657
sS'template int32_t abcOP_getproperty(MethodEnv*, LLVMMultinamePtrMaybeInt, LLVMAtom, LLVMUnusedParam, LLVMAtom);'
p122
I61
sS'template void abcOP_setproperty_nonc(MethodEnv*, Multiname*, LLVMUnusedParam, LLVMUnusedParam, ScriptObject*, ScriptObject*);'
p123
I11496
sS'template String* abcOP_esc_xattr(MethodEnv*, ScriptObject*);'
p124
I1
sS'template LLVMBool abcOP_convert_b(MethodEnv*, ArrayObject*);'
p125
I1273
sS'template int32_t abcOP_add_i(MethodEnv*, int32_t, int32_t);'
p126
I31512
sS'template LLVMBool abcOP_greaterequals(MethodEnv*, LLVMAtom, uint32_t);'
p127
I1
sS'template double abcOP_xarg(MethodEnv*, ExceptionFrame*);'
p128
I1
sS'template LLVMBool abcOP_deleteproperty(MethodEnv*, Multiname*, LLVMUnusedParam, Namespace*, LLVMAtom);'
p129
I2
sS'template double abcOP_Math_pow(MethodEnv*, double, double);'
p130
I6438
sS'template LLVMAtom abcOP_callproperty(MethodEnv*, Multiname*, LLVMUnusedParam, LLVMUnusedParam, uint32_t, uint32_t, ...);'
p131
I1
sS'template String* abcOP_esc_xelem(MethodEnv*, double);'
p132
I3
sS'template LLVMBool abcOP_greaterequals(MethodEnv*, ScriptObject*, ScriptObject*);'
p133
I1
sS'template LLVMBool abcOP_in(MethodEnv*, uint32_t, LLVMAtom);'
p134
I2828
sS'template void abcOP_setproperty(MethodEnv*, Multiname*, ScriptObject*, LLVMUnusedParam, ScriptObject*, ArrayObject*);'
p135
I18
sS'template LLVMBool abcOP_equals(MethodEnv*, LLVMBool, int32_t);'
p136
I3
sS'template LLVMBool abcOP_greaterthan(MethodEnv*, LLVMAtom, uint32_t);'
p137
I5
sS'template int32_t abcOP_getproperty_nonc(MethodEnv*, Multiname*, LLVMUnusedParam, LLVMUnusedParam, LLVMAtom);'
p138
I78
sS'template double abcOP_decrement(MethodEnv*, uint32_t);'
p139
I799
sS'template LLVMAtom abcOP_box(MethodEnv*, String*);'
p140
I54900
sS'template void abcOP_setproperty(MethodEnv*, LLVMMultinamePtrMaybeInt, double, LLVMUnusedParam, ScriptObject*, LLVMAtom);'
p141
I3
sS'template void abcOP_dxnslate(MethodEnv*, AOTMethodFrame*, Namespace*);'
p142
I72
sS'template LLVMAtom abcOP_upcast(MethodEnv*, String*);'
p143
I5005
sS'template LLVMAtom abcOP_getproperty_nonc(MethodEnv*, LLVMMultinamePtrMaybeInt, int32_t, LLVMUnusedParam, ArrayObject*);'
p144
I21021
sS'template LLVMBool abcOP_strictequals(MethodEnv*, int32_t, LLVMBool);'
p145
I3
sS'template LLVMAtom abcOP_getproperty(MethodEnv*, LLVMMultinamePtrMaybeInt, int32_t, LLVMUnusedParam, LLVMAtom);'
p146
I10551
sS'template String* abcOP_getproperty(MethodEnv*, LLVMMultinamePtrMaybeInt, int32_t, LLVMUnusedParam, ScriptObject*);'
p147
I15
sS'template void abcOP_setproperty_nonc(MethodEnv*, LLVMMultinamePtrMaybeInt, int32_t, LLVMUnusedParam, ScriptObject*, ScriptObject*);'
p148
I22622
sS'template double abcOP_divide(MethodEnv*, uint32_t, double);'
p149
I207
sS'template double abcOP_modulo(MethodEnv*, ScriptObject*, double);'
p150
I1
sS'template LLVMAtom abcOP_getproperty(MethodEnv*, Multiname*, LLVMAtom, LLVMUnusedParam, LLVMAtom);'
p151
I7
sS'template LLVMAtom abcOP_String_split(MethodEnv*, String*, ScriptObject*);'
p152
I3
sS'template void abcOP_setproperty(MethodEnv*, LLVMMultinamePtrMaybeInt, LLVMAtom, LLVMUnusedParam, ArrayObject*, LLVMBool);'
p153
I3
sS'template LLVMBool abcOP_getslot(MethodEnv*, char*, ScriptObject*);'
p154
I580
sNI8143720
sS'template double abcOP_increment(MethodEnv*, uint32_t);'
p155
I17103
sS'template int32_t* abcOP_handlerFromMethodEnv(MethodEnv*, ArrayObject*);'
p156
I88936
sS'template String* abcOP_convert_s(MethodEnv*, int32_t);'
p157
I1919
sS'template String* abcOP_String_charAt(MethodEnv*, String*, double);'
p158
I3672
sS'template void abcOP_setproperty(MethodEnv*, LLVMMultinamePtrMaybeInt, LLVMAtom, LLVMUnusedParam, LLVMAtom, int32_t);'
p159
I109
sS'template void abcOP_setproperty(MethodEnv*, LLVMMultinamePtrMaybeInt, int32_t, LLVMUnusedParam, LLVMAtom, LLVMAtom);'
p160
I968
sS'template LLVMBool abcOP_lessthan(MethodEnv*, String*, LLVMAtom);'
p161
I2
sS'template LLVMBool abcOP_greaterthan(MethodEnv*, int32_t, double);'
p162
I102
sS'template LLVMBool abcOP_deleteproperty(MethodEnv*, Multiname*, LLVMBool, LLVMUnusedParam, LLVMAtom);'
p163
I1
sS'template LLVMBool abcOP_in(MethodEnv*, double, ScriptObject*);'
p164
I2
sS'template double abcOP_subtract(MethodEnv*, int32_t, double);'
p165
I1040
sS'template void abcOP_setproperty_nonc(MethodEnv*, LLVMMultinamePtrMaybeInt, LLVMAtom, LLVMUnusedParam, ScriptObject*, ScriptObject*);'
p166
I9
sS'template LLVMBool abcOP_equals(MethodEnv*, double, double);'
p167
I15057
sS'template int32_t abcOP_true(MethodEnv*, int32_t);'
p168
I358
sS'template double abcOP_modulo(MethodEnv*, LLVMAtom, int32_t);'
p169
I18889
sS'template double abcOP_getproperty(MethodEnv*, LLVMMultinamePtrMaybeInt, int32_t, LLVMUnusedParam, LLVMAtom);'
p170
I169
sS'template int32_t abcOP_multiply_i(MethodEnv*, int32_t, int32_t);'
p171
I1019
sS'template int32_t abcOP_li16(MethodEnv*, int32_t);'
p172
I922
sS'template void abcOP_pushwith(MethodEnv*, ScriptObject*);'
p173
I9
sS'template double abcOP_Math_tan(MethodEnv*, double);'
p174
I19
sS'template void abcOP_setslot(MethodEnv*, char*, ScriptObject*, double);'
p175
I2321
sS'template void abcOP_setproperty_nonc(MethodEnv*, LLVMMultinamePtrMaybeInt, double, LLVMUnusedParam, ArrayObject*, ScriptObject*);'
p176
I11
sS'template void abcOP_callproperty(MethodEnv*, Multiname*, LLVMUnusedParam, LLVMUnusedParam, double, uint32_t, ...);'
p177
I10
sS'template LLVMAtom abcOP_nextname(MethodEnv*, LLVMAtom, int32_t);'
p178
I9799
sS'template LLVMAtom abcOP_add(MethodEnv*, String*, ScriptObject*);'
p179
I1
sS'template LLVMBool abcOP_convert_b(MethodEnv*, String*);'
p180
I3954
sS'template LLVMAtom abcOP_getproperty_nonc(MethodEnv*, LLVMMultinamePtrMaybeInt, LLVMAtom, LLVMUnusedParam, ArrayObject*);'
p181
I845
sS'template LLVMBool abcOP_istypelate(MethodEnv*, ScriptObject*, LLVMAtom);'
p182
I1
sS'template void abcOP_setproperty_nonc(MethodEnv*, LLVMMultinamePtrMaybeInt, LLVMAtom, LLVMUnusedParam, LLVMAtom, String*);'
p183
I15
sS'template ArrayObject* abcOP_astypelate(MethodEnv*, ArrayObject*, ScriptObject*);'
p184
I9
sS'template String* abcOP_getslot(MethodEnv*, char*, ScriptObject*);'
p185
I1364
sS'template double abcOP_negate(MethodEnv*, String*);'
p186
I172
sS'template LLVMAtom abcOP_findpropstrict(MethodEnv*, Multiname*, String*, Namespace*, LLVMAtom*, int32_t, int32_t);'
p187
I4
sS'template LLVMAtom abcOP_String_lastIndexOf(MethodEnv*, String*, ScriptObject*);'
p188
I1
sS'template LLVMBool abcOP_lessthan(MethodEnv*, LLVMAtom, LLVMAtom);'
p189
I48691
sS'template void abcOP_setproperty(MethodEnv*, LLVMMultinamePtrMaybeInt, LLVMAtom, LLVMUnusedParam, ScriptObject*, String*);'
p190
I14
sS'template LLVMAtom abcOP_callproperty(MethodEnv*, Multiname*, LLVMUnusedParam, LLVMUnusedParam, LLVMAtom, uint32_t, ...);'
p191
I148687
sS'template void abcOP_setproperty(MethodEnv*, Multiname*, String*, LLVMUnusedParam, LLVMAtom, int32_t);'
p192
I209
sS'template String* abcOP_add(MethodEnv*, LLVMBool, String*);'
p193
I2
sS'template LLVMBool abcOP_deleteproperty(MethodEnv*, LLVMMultinamePtrMaybeInt, double, LLVMUnusedParam, LLVMAtom);'
p194
I1
sS'template LLVMAtom abcOP_upcast(MethodEnv*, uint32_t);'
p195
I280
sS'template String* abcOP_astype(MethodEnv*, LLVMMultinameIndex, int32_t);'
p196
I1
sS'template double abcOP_getproperty(MethodEnv*, LLVMMultinamePtrMaybeInt, int32_t, LLVMUnusedParam, ScriptObject*);'
p197
I335
sS'template double abcOP_divide(MethodEnv*, int32_t, LLVMAtom);'
p198
I41
sS'template double abcOP_getproperty_nonc(MethodEnv*, LLVMMultinamePtrMaybeInt, int32_t, LLVMUnusedParam, ArrayObject*);'
p199
I245
sS'template void abcOP_initproperty(MethodEnv*, Multiname*, uint32_t, LLVMUnusedParam, ArrayObject*, LLVMAtom);'
p200
I2826
sS'template void abcOP_setproperty(MethodEnv*, LLVMMultinamePtrMaybeInt, uint32_t, LLVMUnusedParam, ArrayObject*, LLVMAtom);'
p201
I50
sS'template LLVMBool abcOP_strictequals(MethodEnv*, ScriptObject*, String*);'
p202
I2
sS'template LLVMAtom abcOP_add(MethodEnv*, double, LLVMAtom);'
p203
I8021
sS'template LLVMBool abcOP_deleteproperty(MethodEnv*, LLVMMultinamePtrMaybeInt, double, LLVMUnusedParam, ScriptObject*);'
p204
I5
sS'template void abcOP_callproperty(MethodEnv*, Multiname*, LLVMUnusedParam, LLVMUnusedParam, ArrayObject*, uint32_t, ...);'
p205
I198
sS'template LLVMBool abcOP_istypelate(MethodEnv*, ArrayObject*, ScriptObject*);'
p206
I9
sS'template LLVMBool abcOP_strictequals(MethodEnv*, ArrayObject*, ArrayObject*);'
p207
I32
sS'template void abcOP_setproperty(MethodEnv*, Multiname*, String*, LLVMUnusedParam, LLVMAtom, uint32_t);'
p208
I12
sS'template LLVMAtom abcOP_getdescendants(MethodEnv*, Multiname*, LLVMUnusedParam, LLVMUnusedParam, LLVMAtom);'
p209
I49
sS'template LLVMAtom abcOP_getsuper(MethodEnv*, Multiname*, LLVMUnusedParam, LLVMUnusedParam, ScriptObject*);'
p210
I1
sS'template int32_t abcOP_true(MethodEnv*, double);'
p211
I269
sS'template LLVMAtom abcOP_getdescendants(MethodEnv*, Multiname*, LLVMUnusedParam, LLVMUnusedParam, ScriptObject*);'
p212
I144
sS'template LLVMAtom abcOP_upcast(MethodEnv*, LLVMAtom);'
p213
I1674
sS'template LLVMAtom abcOP_String_indexOf(MethodEnv*, String*, LLVMAtom);'
p214
I2
sS'template void abcOP_setproperty_nonc(MethodEnv*, Multiname*, ScriptObject*, LLVMUnusedParam, ScriptObject*, double);'
p215
I2
sS'template void abcOP_callproperty(MethodEnv*, Multiname*, LLVMUnusedParam, LLVMUnusedParam, LLVMBool, uint32_t, ...);'
p216
I2
sS'template LLVMBool abcOP_greaterthan(MethodEnv*, LLVMAtom, double);'
p217
I4834
sS'template LLVMBool abcOP_strictequals(MethodEnv*, int32_t, uint32_t);'
p218
I124
sS'template LLVMBool abcOP_greaterthan(MethodEnv*, LLVMAtom, String*);'
p219
I3
sS'template void abcOP_setproperty(MethodEnv*, LLVMMultinamePtrMaybeInt, double, LLVMUnusedParam, ArrayObject*, double);'
p220
I12
sS'template void abcOP_setproperty(MethodEnv*, LLVMMultinamePtrMaybeInt, double, LLVMUnusedParam, ArrayObject*, int32_t);'
p221
I33
sS'template LLVMAtom abcOP_astypelate(MethodEnv*, String*, ScriptObject*);'
p222
I11
sS'template void abcOP_setproperty(MethodEnv*, Multiname*, LLVMUnusedParam, LLVMUnusedParam, ScriptObject*, double);'
p223
I26
sS'template uint32_t abcOP_getproperty_nonc(MethodEnv*, LLVMMultinamePtrMaybeInt, uint32_t, LLVMUnusedParam, ScriptObject*);'
p224
I1
sS'template void abcOP_setproperty_nonc(MethodEnv*, Multiname*, LLVMUnusedParam, LLVMUnusedParam, LLVMAtom, LLVMBool);'
p225
I360
sS'template LLVMBool abcOP_istypelate(MethodEnv*, ScriptObject*, ScriptObject*);'
p226
I789
sS'template double abcOP_negate(MethodEnv*, double);'
p227
I2834
sS'template double abcOP_multiply(MethodEnv*, int32_t, LLVMAtom);'
p228
I47099
sS'template void abcOP_setproperty_nonc(MethodEnv*, LLVMMultinamePtrMaybeInt, uint32_t, LLVMUnusedParam, ScriptObject*, double);'
p229
I1
sS'template LLVMAtom abcOP_getproperty(MethodEnv*, Multiname*, QNameObject*, LLVMUnusedParam, ScriptObject*);'
p230
I122
sS'template double abcOP_getproperty_nonc(MethodEnv*, LLVMMultinamePtrMaybeInt, LLVMAtom, LLVMUnusedParam, ArrayObject*);'
p231
I17
sS'template String* abcOP_convert_s(MethodEnv*, Namespace*);'
p232
I1
sS'template LLVMAtom abcOP_add(MethodEnv*, LLVMAtom, uint32_t);'
p233
I17
sS'template LLVMBool abcOP_istype(MethodEnv*, Traits**, LLVMAtom);'
p234
I162811
sS'template LLVMAtom abcOP_getproperty_nonc(MethodEnv*, Multiname*, LLVMUnusedParam, LLVMUnusedParam, LLVMBool);'
p235
I1372
sS'template uint32_t abcOP_constructprop(MethodEnv*, Multiname*, LLVMUnusedParam, LLVMUnusedParam, uint32_t, ...);'
p236
I10
sS'template LLVMAtom abcOP_getdescendants(MethodEnv*, Multiname*, LLVMAtom, LLVMUnusedParam, LLVMAtom);'
p237
I2
sS'template LLVMAtom abcOP_String_indexOf(MethodEnv*, String*, ScriptObject*, int32_t);'
p238
I1
sS'template void abcOP_setproperty(MethodEnv*, LLVMMultinamePtrMaybeInt, LLVMAtom, LLVMUnusedParam, ScriptObject*, ScriptObject*);'
p239
I67
sS'template String* abcOP_convert_s(MethodEnv*, uint32_t);'
p240
I39
sS'template String* abcOP_astypelate(MethodEnv*, LLVMAtom, ScriptObject*);'
p241
I262
sS'template uint32_t abcOP_getproperty(MethodEnv*, LLVMMultinamePtrMaybeInt, int32_t, LLVMUnusedParam, LLVMAtom);'
p242
I2
sS'template void abcOP_si16(MethodEnv*, int32_t, int32_t);'
p243
I402
sS'template LLVMBool abcOP_equals(MethodEnv*, LLVMAtom, int32_t);'
p244
I76250
sS'template int32_t* abcOP_handlerFromMethodEnv(MethodEnv*, String*);'
p245
I20684
sS'template double abcOP_subtract(MethodEnv*, ScriptObject*, double);'
p246
I3
sS'template void abcOP_setproperty(MethodEnv*, LLVMMultinamePtrMaybeInt, double, LLVMUnusedParam, LLVMAtom, String*);'
p247
I42
sS'template int32_t abcOP_convert_i(MethodEnv*, LLVMBool);'
p248
I15
sS'template ScriptObject* abcOP_load(int32_t*);'
p249
I1310500
sS'template void abcOP_setproperty_nonc(MethodEnv*, LLVMMultinamePtrMaybeInt, double, LLVMUnusedParam, ArrayObject*, LLVMBool);'
p250
I1
sS'template void abcOP_setproperty(MethodEnv*, Multiname*, LLVMUnusedParam, LLVMUnusedParam, LLVMAtom, LLVMAtom);'
p251
I23076
sS'template LLVMAtom abcOP_getproperty(MethodEnv*, Multiname*, ScriptObject*, LLVMUnusedParam, ArrayObject*);'
p252
I2
sS'template uint32_t abcOP_getslot_nonc(MethodEnv*, char*, ScriptObject*);'
p253
I54409
sS'template String* abcOP_add(MethodEnv*, String*, uint32_t);'
p254
I3582
sS'template LLVMBool abcOP_istypelate(MethodEnv*, int32_t, ScriptObject*);'
p255
I14
sS'template void abcOP_setproperty_nonc(MethodEnv*, LLVMMultinamePtrMaybeInt, LLVMAtom, LLVMUnusedParam, ScriptObject*, LLVMBool);'
p256
I15
sS'template LLVMBool abcOP_greaterthan(MethodEnv*, LLVMBool, int32_t);'
p257
I16
sS'template void abcOP_setproperty(MethodEnv*, Multiname*, LLVMUnusedParam, Namespace*, LLVMAtom, ScriptObject*);'
p258
I250
sS'template double abcOP_add(MethodEnv*, uint32_t, double);'
p259
I29
sS'template void abcOP_setproperty(MethodEnv*, LLVMMultinamePtrMaybeInt, uint32_t, LLVMUnusedParam, ArrayObject*, double);'
p260
I33
sS'template void abcOP_setproperty_nonc(MethodEnv*, LLVMMultinamePtrMaybeInt, double, LLVMUnusedParam, ArrayObject*, int32_t);'
p261
I47
sS'template LLVMAtom abcOP_add(MethodEnv*, LLVMAtom, ScriptObject*);'
p262
I87
sS'template LLVMAtom abcOP_String_slice(MethodEnv*, String*, int32_t, int32_t);'
p263
I1
sS'template void abcOP_nullcheck(MethodEnv*, int32_t);'
p264
I36
sS'template LLVMAtom abcOP_box(MethodEnv*, QNameObject*);'
p265
I11304
sS'template String* abcOP_String_slice(MethodEnv*, String*, double, double);'
p266
I3057
sS'template int32_t abcOP_getproperty(MethodEnv*, Multiname*, String*, LLVMUnusedParam, LLVMAtom);'
p267
I10
sS'template int32_t* abcOP_handlerFromMethodEnv(MethodEnv*, LLVMAtom);'
p268
I465
sS'template double abcOP_multiply(MethodEnv*, ScriptObject*, int32_t);'
p269
I1
sS'template void abcOP_setproperty_nonc(MethodEnv*, Multiname*, String*, LLVMUnusedParam, LLVMAtom, LLVMBool);'
p270
I79
sS'template ScriptObject* abcOP_coerce(MethodEnv*, Traits**, double);'
p271
I4
sS'template void abcOP_setproperty(MethodEnv*, Multiname*, LLVMUnusedParam, LLVMUnusedParam, ArrayObject*, int32_t);'
p272
I5
sS'template LLVMBool abcOP_strictequals(MethodEnv*, double, LLVMAtom);'
p273
I6
sS'template int32_t abcOP_getproperty_nonc(MethodEnv*, LLVMMultinamePtrMaybeInt, int32_t, LLVMUnusedParam, ScriptObject*);'
p274
I151
sS'template void abcOP_setproperty_nonc(MethodEnv*, LLVMMultinamePtrMaybeInt, LLVMAtom, LLVMUnusedParam, ArrayObject*, LLVMAtom);'
p275
I88
sS'template LLVMBool abcOP_istype(MethodEnv*, Traits**, ArrayObject*);'
p276
I3
sS'template double abcOP_decrement(MethodEnv*, ScriptObject*);'
p277
I3
sS'template uint32_t abcOP_convert_u(MethodEnv*, double);'
p278
I21763
sS'template LLVMAtom abcOP_add(MethodEnv*, LLVMAtom, int32_t);'
p279
I36859
sS'template void abcOP_setproperty(MethodEnv*, Multiname*, LLVMUnusedParam, LLVMUnusedParam, LLVMAtom, double);'
p280
I1119
sS'template LLVMAtom abcOP_getproperty_nonc(MethodEnv*, Multiname*, ScriptObject*, LLVMUnusedParam, ScriptObject*);'
p281
I6
sS'template double abcOP_Math_ceil(MethodEnv*, double);'
p282
I658
sS'template LLVMBool abcOP_equals(MethodEnv*, ArrayObject*, ScriptObject*);'
p283
I3006
sS'template void abcOP_setproperty_nonc(MethodEnv*, Multiname*, LLVMUnusedParam, LLVMUnusedParam, LLVMAtom, double);'
p284
I20657
sS'template LLVMBool abcOP_equals(MethodEnv*, ScriptObject*, ScriptObject*);'
p285
I15643
sS'template void abcOP_setproperty(MethodEnv*, LLVMMultinamePtrMaybeInt, double, LLVMUnusedParam, ArrayObject*, String*);'
p286
I127
sS'template LLVMBool abcOP_deleteproperty(MethodEnv*, LLVMMultinamePtrMaybeInt, int32_t, LLVMUnusedParam, ArrayObject*);'
p287
I26
sS'template void abcOP_nullcheck(MethodEnv*, QNameObject*);'
p288
I2828
sS'template LLVMAtom abcOP_String_indexOf(MethodEnv*, String*, String*);'
p289
I3
sS'template LLVMBool abcOP_lessequals(MethodEnv*, ScriptObject*, LLVMAtom);'
p290
I8
sS'template void abcOP_setproperty(MethodEnv*, Multiname*, LLVMUnusedParam, LLVMUnusedParam, LLVMAtom, QNameObject*);'
p291
I52
sS'template LLVMAtom abcOP_newobject(MethodEnv*, char*, ...);'
p292
I7543
sS'template LLVMAtom abcOP_getproperty(MethodEnv*, Multiname*, ArrayObject*, LLVMUnusedParam, LLVMAtom);'
p293
I1
sS'template LLVMBool abcOP_instanceof(MethodEnv*, LLVMAtom, ScriptObject*);'
p294
I2544
sS'template LLVMAtom abcOP_callproperty(MethodEnv*, Multiname*, LLVMUnusedParam, LLVMUnusedParam, LLVMAtom, char*, ...);'
p295
I5
sS'template double abcOP_getproperty_nonc(MethodEnv*, Multiname*, LLVMUnusedParam, LLVMUnusedParam, ScriptObject*);'
p296
I26
sS'template LLVMAtom abcOP_getdescendants(MethodEnv*, Multiname*, LLVMUnusedParam, Namespace*, ScriptObject*);'
p297
I5
sS'template void abcOP_setproperty(MethodEnv*, Multiname*, ArrayObject*, LLVMUnusedParam, LLVMAtom, LLVMAtom);'
p298
I2
sS'template LLVMBool abcOP_greaterequals(MethodEnv*, uint32_t, LLVMAtom);'
p299
I25
sS'template double abcOP_multiply(MethodEnv*, LLVMAtom, double);'
p300
I3070
sS'template void abcOP_initproperty(MethodEnv*, Multiname*, String*, LLVMUnusedParam, ScriptObject*, LLVMAtom);'
p301
I14
sS'template int32_t abcOP_true(MethodEnv*, LLVMAtom);'
p302
I3231
sS'template LLVMBool abcOP_strictequals(MethodEnv*, LLVMBool, LLVMAtom);'
p303
I8
sS'template double abcOP_getproperty(MethodEnv*, LLVMMultinamePtrMaybeInt, uint32_t, LLVMUnusedParam, LLVMAtom);'
p304
I6
sS'template void abcOP_setproperty_nonc(MethodEnv*, LLVMMultinamePtrMaybeInt, double, LLVMUnusedParam, ScriptObject*, ScriptObject*);'
p305
I8
sS'template String* abcOP_getslot_nonc(MethodEnv*, char*, ScriptObject*);'
p306
I88237
sS'template LLVMAtom abcOP_getproperty(MethodEnv*, Multiname*, LLVMUnusedParam, LLVMUnusedParam, ScriptObject*);'
p307
I10823
sS'template LLVMAtom abcOP_String_lastIndexOf(MethodEnv*, String*, String*);'
p308
I1
sS'template void abcOP_setproperty_nonc(MethodEnv*, Multiname*, String*, LLVMUnusedParam, LLVMAtom, ScriptObject*);'
p309
I187
sS'template LLVMAtom abcOP_getslot(MethodEnv*, char*, ScriptObject*);'
p310
I4453
sS'template void abcOP_setproperty_nonc(MethodEnv*, LLVMMultinamePtrMaybeInt, uint32_t, LLVMUnusedParam, ScriptObject*, LLVMAtom);'
p311
I6
sS'template LLVMBool abcOP_equals(MethodEnv*, LLVMBool, ScriptObject*);'
p312
I1
sS'template void abcOP_initproperty(MethodEnv*, Multiname*, LLVMUnusedParam, LLVMUnusedParam, LLVMAtom, ArrayObject*);'
p313
I3
sS'template Namespace* abcOP_upcast(MethodEnv*, ScriptObject*);'
p314
I2
sS'template int32_t abcOP_negate_i(MethodEnv*, int32_t);'
p315
I78
sS'template ScriptObject* abcOP_coerce(MethodEnv*, Traits**, int32_t);'
p316
I4
sS'template void abcOP_setproperty_nonc(MethodEnv*, LLVMMultinamePtrMaybeInt, int32_t, LLVMUnusedParam, ScriptObject*, LLVMAtom);'
p317
I24
sS'template int32_t abcOP_true(MethodEnv*, LLVMBool);'
p318
I1346858
sS'template void abcOP_setproperty_nonc(MethodEnv*, LLVMMultinamePtrMaybeInt, int32_t, LLVMUnusedParam, LLVMAtom, ScriptObject*);'
p319
I61
sS'template LLVMAtom abcOP_getproperty_nonc(MethodEnv*, Multiname*, LLVMUnusedParam, Namespace*, ScriptObject*);'
p320
I567
sS'template double abcOP_Math_acos(MethodEnv*, double);'
p321
I74
sS'template void abcOP_setproperty(MethodEnv*, LLVMMultinamePtrMaybeInt, LLVMAtom, LLVMUnusedParam, ScriptObject*, LLVMBool);'
p322
I19
sS'template void abcOP_setproperty(MethodEnv*, LLVMMultinamePtrMaybeInt, int32_t, LLVMUnusedParam, ScriptObject*, uint32_t);'
p323
I23
sS'template LLVMBool abcOP_convert_b(MethodEnv*, ScriptObject*);'
p324
I12140
sS'template LLVMAtom abcOP_getproperty_nonc(MethodEnv*, LLVMMultinamePtrMaybeInt, LLVMAtom, LLVMUnusedParam, ScriptObject*);'
p325
I125
sS'template ScriptObject* abcOP_newfunction(MethodEnv*, Traits**, Traits***, uint32_t, uint32_t, LLVMAtom*, uint32_t);'
p326
I991018
sS'template ScriptObject* abcOP_finddef(MethodEnv*, LLVMMultinameIndex);'
p327
I61901
sS'template int32_t abcOP_hasnext(MethodEnv*, ScriptObject*, int32_t);'
p328
I1
sS'template void abcOP_setslot(MethodEnv*, char*, ScriptObject*, LLVMAtom);'
p329
I285
sS'template void abcOP_setproperty(MethodEnv*, LLVMMultinamePtrMaybeInt, LLVMAtom, LLVMUnusedParam, LLVMAtom, ScriptObject*);'
p330
I69
sS'template double abcOP_getproperty(MethodEnv*, LLVMMultinamePtrMaybeInt, LLVMAtom, LLVMUnusedParam, ScriptObject*);'
p331
I8
sS'template double abcOP_negate(MethodEnv*, LLVMAtom);'
p332
I1533
sS'template void abcOP_setproperty_nonc(MethodEnv*, LLVMMultinamePtrMaybeInt, LLVMAtom, LLVMUnusedParam, ScriptObject*, String*);'
p333
I1
sS'template void abcOP_setproperty(MethodEnv*, Multiname*, String*, LLVMUnusedParam, LLVMAtom, ArrayObject*);'
p334
I87
sS'template LLVMBool abcOP_strictequals(MethodEnv*, uint32_t, uint32_t);'
p335
I961
sS'template double abcOP_add(MethodEnv*, double, uint32_t);'
p336
I22715
sS'template void abcOP_setslot(MethodEnv*, char*, ScriptObject*, int32_t);'
p337
I10727
sS'template void abcOP_setproperty(MethodEnv*, Multiname*, String*, LLVMUnusedParam, ArrayObject*, double);'
p338
I2
sS'template LLVMBool abcOP_equals(MethodEnv*, int32_t, uint32_t);'
p339
I254
sS'template LLVMBool abcOP_lessequals(MethodEnv*, double, int32_t);'
p340
I5250
sS'template int32_t abcOP_convert_i(MethodEnv*, ScriptObject*);'
p341
I154
sS'template uint32_t abcOP_convert_u(MethodEnv*, String*);'
p342
I13
sS'template double abcOP_subtract(MethodEnv*, uint32_t, uint32_t);'
p343
I11357
sS'template void abcOP_setslot(MethodEnv*, char*, ScriptObject*, LLVMBool);'
p344
I563
sS'template void abcOP_setproperty_nonc(MethodEnv*, LLVMMultinamePtrMaybeInt, uint32_t, LLVMUnusedParam, ArrayObject*, uint32_t);'
p345
I7
sS'template LLVMBool abcOP_istypelate(MethodEnv*, double, int32_t);'
p346
I1
sS'template LLVMBool abcOP_greaterequals(MethodEnv*, int32_t, uint32_t);'
p347
I71
sS'template double abcOP_subtract(MethodEnv*, double, double);'
p348
I38037
sS'template LLVMBool abcOP_strictequals(MethodEnv*, LLVMBool, LLVMBool);'
p349
I4866
sS'template void abcOP_dxnslate(MethodEnv*, AOTMethodFrame*, LLVMAtom);'
p350
I111
sS'template double abcOP_modulo(MethodEnv*, double, int32_t);'
p351
I316
sS'template LLVMBool abcOP_lessthan(MethodEnv*, LLVMAtom, double);'
p352
I7178
sS'template void abcOP_setproperty(MethodEnv*, LLVMMultinamePtrMaybeInt, uint32_t, LLVMUnusedParam, LLVMAtom, LLVMAtom);'
p353
I3
sS'template ScriptObject* abcOP_getslot_nonc(MethodEnv*, char*, ScriptObject*);'
p354
I1249863
sS'template void abcOP_dxnslate(MethodEnv*, AOTMethodFrame*, ScriptObject*);'
p355
I3
sS'template void abcOP_setproperty_nonc(MethodEnv*, Multiname*, LLVMUnusedParam, LLVMUnusedParam, ScriptObject*, int32_t);'
p356
I51
sS'template LLVMBool abcOP_lessequals(MethodEnv*, double, LLVMAtom);'
p357
I15
sS'template int32_t abcOP_convert_i(MethodEnv*, double);'
p358
I20222
sS'template String* abcOP_add(MethodEnv*, int32_t, String*);'
p359
I37
sS'template double abcOP_modulo(MethodEnv*, LLVMAtom, LLVMAtom);'
p360
I7080
sS'template LLVMBool abcOP_greaterequals(MethodEnv*, double, int32_t);'
p361
I531
sS'template uint32_t abcOP_getproperty(MethodEnv*, LLVMMultinamePtrMaybeInt, uint32_t, LLVMUnusedParam, ScriptObject*);'
p362
I10
sS'template String* abcOP_add(MethodEnv*, ArrayObject*, String*);'
p363
I1
sS'template LLVMBool abcOP_equals(MethodEnv*, ScriptObject*, LLVMAtom);'
p364
I1342
sS'template ArrayObject* abcOP_astypelate(MethodEnv*, LLVMAtom, ScriptObject*);'
p365
I542
sS'template LLVMBool abcOP_equals(MethodEnv*, String*, int32_t);'
p366
I1
sS'template String* abcOP_esc_xelem(MethodEnv*, String*);'
p367
I71
sS'template LLVMAtom abcOP_upcast(MethodEnv*, ScriptObject*);'
p368
I44292
sS'template String* abcOP_astypelate(MethodEnv*, double, ScriptObject*);'
p369
I6
sS'template LLVMBool abcOP_getproperty(MethodEnv*, LLVMMultinamePtrMaybeInt, uint32_t, LLVMUnusedParam, ScriptObject*);'
p370
I2
sS'template void abcOP_setproperty(MethodEnv*, LLVMMultinamePtrMaybeInt, LLVMAtom, LLVMUnusedParam, LLVMAtom, double);'
p371
I4748
sS'template LLVMAtom abcOP_String_replace(MethodEnv*, String*, LLVMAtom, LLVMAtom);'
p372
I2827
sS'template LLVMAtom abcOP_upcast(MethodEnv*, int32_t);'
p373
I2720
sS'template int32_t abcOP_bitor(MethodEnv*, int32_t, int32_t);'
p374
I29840
sS'template LLVMAtom abcOP_getproperty_nonc(MethodEnv*, LLVMMultinamePtrMaybeInt, uint32_t, LLVMUnusedParam, ScriptObject*);'
p375
I34006
sS'template LLVMAtom abcOP_construct(MethodEnv*, int32_t, uint32_t, ...);'
p376
I1
sS'template double abcOP_subtract(MethodEnv*, double, LLVMAtom);'
p377
I25896
sS'template LLVMAtom abcOP_callproperty(MethodEnv*, Multiname*, LLVMUnusedParam, LLVMUnusedParam, ScriptObject*, char*, ...);'
p378
I56
sS'template int32_t abcOP_getproperty(MethodEnv*, Multiname*, ScriptObject*, LLVMUnusedParam, ScriptObject*);'
p379
I24
sS'template LLVMBool abcOP_equals(MethodEnv*, uint32_t, ScriptObject*);'
p380
I1
sS'template LLVMAtom abcOP_add(MethodEnv*, uint32_t, LLVMAtom);'
p381
I9
sS'template LLVMAtom abcOP_astypelate(MethodEnv*, double, ScriptObject*);'
p382
I75
sS'template int32_t abcOP_getproperty(MethodEnv*, LLVMMultinamePtrMaybeInt, LLVMAtom, LLVMUnusedParam, ScriptObject*);'
p383
I129
sS'template LLVMBool abcOP_greaterequals(MethodEnv*, int32_t, int32_t);'
p384
I13401
sS'template LLVMBool abcOP_in(MethodEnv*, int32_t, LLVMAtom);'
p385
I25
sS'template String* abcOP_convert_s(MethodEnv*, LLVMBool);'
p386
I13
sS'template String* abcOP_astypelate(MethodEnv*, String*, ScriptObject*);'
p387
I8
sS'template uint32_t abcOP_getproperty(MethodEnv*, LLVMMultinamePtrMaybeInt, double, LLVMUnusedParam, ScriptObject*);'
p388
I4
sS'template int32_t abcOP_getproperty_nonc(MethodEnv*, LLVMMultinamePtrMaybeInt, double, LLVMUnusedParam, LLVMAtom);'
p389
I35
sS'template void abcOP_setproperty(MethodEnv*, LLVMMultinamePtrMaybeInt, int32_t, LLVMUnusedParam, ArrayObject*, String*);'
p390
I120
sS'template double abcOP_subtract(MethodEnv*, ScriptObject*, int32_t);'
p391
I15
sS'template LLVMBool abcOP_lessthan(MethodEnv*, LLVMAtom, uint32_t);'
p392
I387
sS'template LLVMAtom abcOP_getproperty_nonc(MethodEnv*, Multiname*, String*, LLVMUnusedParam, ArrayObject*);'
p393
I17
sS'template double abcOP_convert_d(MethodEnv*, LLVMBool);'
p394
I41
sS'template LLVMBool abcOP_greaterthan(MethodEnv*, int32_t, LLVMAtom);'
p395
I22
sS'template double abcOP_subtract(MethodEnv*, int32_t, ScriptObject*);'
p396
I1
sS'template double abcOP_subtract(MethodEnv*, double, uint32_t);'
p397
I60
sS'template void abcOP_setproperty_nonc(MethodEnv*, Multiname*, LLVMUnusedParam, LLVMUnusedParam, LLVMBool, LLVMAtom);'
p398
I6
sS'template double abcOP_getproperty_nonc(MethodEnv*, Multiname*, LLVMUnusedParam, LLVMUnusedParam, LLVMAtom);'
p399
I7507
sS'template void abcOP_callproperty(MethodEnv*, Multiname*, LLVMUnusedParam, LLVMUnusedParam, int32_t, uint32_t, ...);'
p400
I1
sS'template ArrayObject* abcOP_upcast(MethodEnv*, ScriptObject*);'
p401
I5778
sS'template double abcOP_multiply(MethodEnv*, LLVMAtom, int32_t);'
p402
I211
sS'template void abcOP_setproperty(MethodEnv*, LLVMMultinamePtrMaybeInt, double, LLVMUnusedParam, ArrayObject*, LLVMAtom);'
p403
I194
sS'template LLVMAtom abcOP_findpropstrict(MethodEnv*, Multiname*, LLVMUnusedParam, Namespace*, LLVMAtom*, int32_t, int32_t);'
p404
I1285
sS'template double abcOP_loadnan(MethodEnv*);'
p405
I4044
sS'template double abcOP_getproperty(MethodEnv*, LLVMMultinamePtrMaybeInt, int32_t, LLVMUnusedParam, ArrayObject*);'
p406
I135
sS'template void abcOP_setproperty(MethodEnv*, LLVMMultinamePtrMaybeInt, double, LLVMUnusedParam, ArrayObject*, ArrayObject*);'
p407
I5
sS'template void abcOP_setproperty_nonc(MethodEnv*, Multiname*, LLVMUnusedParam, LLVMUnusedParam, LLVMAtom, String*);'
p408
I6976
sS'template double abcOP_getproperty(MethodEnv*, LLVMMultinamePtrMaybeInt, uint32_t, LLVMUnusedParam, ArrayObject*);'
p409
I87
sS'template void abcOP_checkfilter(MethodEnv*, int32_t);'
p410
I1
sS'template int32_t abcOP_li32(MethodEnv*, int32_t);'
p411
I10066
sS'template String* abcOP_coerce_s(MethodEnv*, LLVMAtom);'
p412
I50990
sS'template LLVMBool abcOP_lessequals(MethodEnv*, double, uint32_t);'
p413
I2
sS'template LLVMBool abcOP_lessthan(MethodEnv*, uint32_t, int32_t);'
p414
I438
sS'template ScriptObject* abcOP_getproperty_nonc(MethodEnv*, Multiname*, LLVMUnusedParam, LLVMUnusedParam, ScriptObject*);'
p415
I56720
sS'template double abcOP_Math_atan2(MethodEnv*, double, double);'
p416
I51
sS'template double abcOP_getproperty_nonc(MethodEnv*, LLVMMultinamePtrMaybeInt, double, LLVMUnusedParam, ScriptObject*);'
p417
I3
sS'template LLVMBool abcOP_lessequals(MethodEnv*, uint32_t, double);'
p418
I5
sS'template int32_t abcOP_getproperty_nonc(MethodEnv*, Multiname*, String*, LLVMUnusedParam, LLVMAtom);'
p419
I4
sS'template void abcOP_setproperty(MethodEnv*, Multiname*, String*, Namespace*, LLVMAtom, String*);'
p420
I1
sS'template String* abcOP_esc_xelem(MethodEnv*, int32_t);'
p421
I6
sS'template LLVMBool abcOP_strictequals(MethodEnv*, uint32_t, int32_t);'
p422
I53
sS'template void abcOP_setslot_nonc(MethodEnv*, char*, ScriptObject*, uint32_t);'
p423
I133028
sS'template double abcOP_subtract(MethodEnv*, uint32_t, LLVMAtom);'
p424
I40
sS'template LLVMBool abcOP_equals(MethodEnv*, uint32_t, LLVMAtom);'
p425
I4
sS'template LLVMAtom abcOP_astypelate(MethodEnv*, LLVMAtom, int32_t);'
p426
I1
sS'template int32_t abcOP_getproperty_nonc(MethodEnv*, LLVMMultinamePtrMaybeInt, double, LLVMUnusedParam, ScriptObject*);'
p427
I44
sS'template void abcOP_setproperty_nonc(MethodEnv*, LLVMMultinamePtrMaybeInt, double, LLVMUnusedParam, LLVMAtom, LLVMAtom);'
p428
I11050
sS'template double abcOP_add(MethodEnv*, double, LLVMBool);'
p429
I2
sS'template LLVMAtom abcOP_getproperty(MethodEnv*, LLVMMultinamePtrMaybeInt, double, LLVMUnusedParam, ArrayObject*);'
p430
I1032
sS'template LLVMBool abcOP_lessthan(MethodEnv*, LLVMAtom, LLVMBool);'
p431
I3
sS'template LLVMBool abcOP_istypelate(MethodEnv*, double, LLVMAtom);'
p432
I1
sS'template LLVMBool abcOP_lessthan(MethodEnv*, LLVMBool, LLVMBool);'
p433
I4
sS'template void abcOP_setproperty(MethodEnv*, Multiname*, String*, LLVMUnusedParam, ArrayObject*, uint32_t);'
p434
I12
sS'template double abcOP_subtract(MethodEnv*, int32_t, LLVMAtom);'
p435
I89
sS'template void abcOP_setproperty_nonc(MethodEnv*, Multiname*, LLVMUnusedParam, Namespace*, ScriptObject*, double);'
p436
I8
sS'template LLVMBool abcOP_in(MethodEnv*, String*, ScriptObject*);'
p437
I284
sS'template double abcOP_modulo(MethodEnv*, int32_t, LLVMAtom);'
p438
I1
sS'template ScriptObject* abcOP_findproperty(MethodEnv*, Multiname*, LLVMUnusedParam, LLVMUnusedParam, LLVMAtom*, int32_t, int32_t);'
p439
I2
sS'template void abcOP_setslot(MethodEnv*, char*, ScriptObject*, uint32_t);'
p440
I67
sS'template LLVMAtom abcOP_add(MethodEnv*, String*, double);'
p441
I6
sS'template double abcOP_decrement(MethodEnv*, LLVMBool);'
p442
I2
sS'template double abcOP_Math_log(MethodEnv*, double);'
p443
I92
sS'template int32_t abcOP_li8(MethodEnv*, int32_t);'
p444
I1207
sS'template LLVMBool abcOP_greaterthan(MethodEnv*, uint32_t, uint32_t);'
p445
I395
sS'template double abcOP_multiply(MethodEnv*, uint32_t, int32_t);'
p446
I101
sS'template double abcOP_negate(MethodEnv*, int32_t);'
p447
I98
sS'template LLVMBool abcOP_not(MethodEnv*, ScriptObject*);'
p448
I3811
sS'template LLVMBool abcOP_lessthan(MethodEnv*, int32_t, double);'
p449
I472
sS'template double abcOP_Math_sqrt(MethodEnv*, double);'
p450
I5028
sS'template void abcOP_setproperty(MethodEnv*, LLVMMultinamePtrMaybeInt, int32_t, LLVMUnusedParam, LLVMAtom, uint32_t);'
p451
I22
sS'template void abcOP_setproperty(MethodEnv*, LLVMMultinamePtrMaybeInt, LLVMAtom, LLVMUnusedParam, LLVMAtom, String*);'
p452
I28
sS'template void abcOP_initproperty(MethodEnv*, Multiname*, LLVMUnusedParam, LLVMUnusedParam, LLVMAtom, LLVMAtom);'
p453
I5
sS'template String* abcOP_astypelate(MethodEnv*, LLVMBool, ScriptObject*);'
p454
I5
sS'template void abcOP_setproperty(MethodEnv*, Multiname*, ScriptObject*, LLVMUnusedParam, LLVMAtom, ScriptObject*);'
p455
I82
sS'template LLVMAtom abcOP_astypelate(MethodEnv*, int32_t, ScriptObject*);'
p456
I8
sS'template String* abcOP_add(MethodEnv*, LLVMAtom, String*);'
p457
I36842
sS'template double abcOP_divide(MethodEnv*, double, int32_t);'
p458
I12566
sS'template void abcOP_setproperty_nonc(MethodEnv*, Multiname*, LLVMUnusedParam, Namespace*, ScriptObject*, String*);'
p459
I4
sS'template double abcOP_modulo(MethodEnv*, uint32_t, uint32_t);'
p460
I15
sS'template void abcOP_setproperty_nonc(MethodEnv*, Multiname*, String*, LLVMUnusedParam, ArrayObject*, LLVMAtom);'
p461
I3
sS'template LLVMBool abcOP_greaterequals(MethodEnv*, uint32_t, double);'
p462
I4
sS'template LLVMBool abcOP_equals(MethodEnv*, int32_t, String*);'
p463
I11
sS'template double abcOP_getproperty(MethodEnv*, LLVMMultinamePtrMaybeInt, double, LLVMUnusedParam, ScriptObject*);'
p464
I37
sS'template int32_t abcOP_getproperty_nonc(MethodEnv*, LLVMMultinamePtrMaybeInt, LLVMAtom, LLVMUnusedParam, LLVMAtom);'
p465
I34
sS'template LLVMAtom abcOP_add(MethodEnv*, double, String*);'
p466
I4
sS'template LLVMAtom abcOP_getproperty_nonc(MethodEnv*, Multiname*, String*, LLVMUnusedParam, LLVMAtom);'
p467
I9920
sS'template void abcOP_nullcheck(MethodEnv*, uint32_t);'
p468
I55
sS'template void abcOP_setproperty(MethodEnv*, LLVMMultinamePtrMaybeInt, double, LLVMUnusedParam, ScriptObject*, int32_t);'
p469
I16
sS'template LLVMBool abcOP_istypelate(MethodEnv*, String*, ScriptObject*);'
p470
I14
sS'template LLVMAtom abcOP_add(MethodEnv*, LLVMAtom, LLVMBool);'
p471
I6
sS'template LLVMAtom abcOP_getproperty(MethodEnv*, Multiname*, QNameObject*, LLVMUnusedParam, LLVMAtom);'
p472
I41
sS'template void abcOP_setslot_nonc(MethodEnv*, char*, ScriptObject*, LLVMAtom);'
p473
I911456
sS'template double abcOP_divide(MethodEnv*, int32_t, double);'
p474
I717
sS'template void abcOP_setproperty(MethodEnv*, Multiname*, LLVMUnusedParam, LLVMUnusedParam, String*, LLVMAtom);'
p475
I2
sS'template void abcOP_setproperty(MethodEnv*, Multiname*, ArrayObject*, LLVMUnusedParam, ScriptObject*, ArrayObject*);'
p476
I1
sS'template double abcOP_subtract(MethodEnv*, LLVMAtom, int32_t);'
p477
I38055
sS'template void abcOP_setproperty(MethodEnv*, Multiname*, String*, LLVMUnusedParam, ScriptObject*, int32_t);'
p478
I19
sS'template int32_t abcOP_String_search(MethodEnv*, String*, LLVMAtom);'
p479
I133
sS'template LLVMBool abcOP_strictequals(MethodEnv*, ScriptObject*, int32_t);'
p480
I1
sS'template void abcOP_setproperty(MethodEnv*, LLVMMultinamePtrMaybeInt, int32_t, LLVMUnusedParam, ArrayObject*, uint32_t);'
p481
I4
sS'template ScriptObject* abcOP_findpropstrict(MethodEnv*, Multiname*, LLVMUnusedParam, LLVMUnusedParam, LLVMAtom*, int32_t, int32_t);'
p482
I91
sS'template void abcOP_callproperty(MethodEnv*, Multiname*, LLVMUnusedParam, LLVMUnusedParam, String*, uint32_t, ...);'
p483
I1
sS'template void abcOP_throw(MethodEnv*, LLVMAtom);'
p484
I17855
sS'template LLVMBool abcOP_greaterthan(MethodEnv*, double, LLVMAtom);'
p485
I73
sS'template LLVMBool abcOP_greaterequals(MethodEnv*, int32_t, LLVMAtom);'
p486
I52
sS'template LLVMAtom abcOP_String_split(MethodEnv*, String*, LLVMAtom);'
p487
I10
sS'template double abcOP_multiply(MethodEnv*, int32_t, uint32_t);'
p488
I114
sS'template String* abcOP_esc_xattr(MethodEnv*, String*);'
p489
I27
sS'template uint32_t abcOP_urshift(MethodEnv*, int32_t, int32_t);'
p490
I782
sS'template double abcOP_Math_exp(MethodEnv*, double);'
p491
I28
sS'template double abcOP_multiply(MethodEnv*, double, LLVMAtom);'
p492
I2633
sS'template QNameObject* abcOP_constructprop(MethodEnv*, Multiname*, LLVMUnusedParam, LLVMUnusedParam, uint32_t, ...);'
p493
I404
sS'template void abcOP_setproperty(MethodEnv*, LLVMMultinamePtrMaybeInt, double, LLVMUnusedParam, ScriptObject*, double);'
p494
I3
sS'template LLVMAtom abcOP_getproperty(MethodEnv*, LLVMMultinamePtrMaybeInt, double, LLVMUnusedParam, ScriptObject*);'
p495
I279
sS'template LLVMBool abcOP_lessthan(MethodEnv*, int32_t, LLVMAtom);'
p496
I529
sS'template LLVMAtom abcOP_getproperty(MethodEnv*, Multiname*, ScriptObject*, LLVMUnusedParam, LLVMAtom);'
p497
I48
sS'template void abcOP_setproperty_nonc(MethodEnv*, LLVMMultinamePtrMaybeInt, uint32_t, LLVMUnusedParam, ArrayObject*, ArrayObject*);'
p498
I7
sS'template LLVMBool abcOP_strictequals(MethodEnv*, ArrayObject*, ScriptObject*);'
p499
I129
sS'template LLVMAtom abcOP_add(MethodEnv*, String*, LLVMAtom);'
p500
I129
sS'template double abcOP_getproperty_nonc(MethodEnv*, LLVMMultinamePtrMaybeInt, uint32_t, LLVMUnusedParam, ArrayObject*);'
p501
I16
sS'template double abcOP_add(MethodEnv*, int32_t, uint32_t);'
p502
I23
sS'template uint32_t abcOP_getproperty_nonc(MethodEnv*, Multiname*, LLVMUnusedParam, LLVMUnusedParam, LLVMAtom);'
p503
I22608
sS'template LLVMBool abcOP_greaterthan(MethodEnv*, double, uint32_t);'
p504
I11307
sS'template LLVMAtom abcOP_upcast(MethodEnv*, LLVMBool);'
p505
I889
sS'template void abcOP_setslot(MethodEnv*, char*, ScriptObject*, ScriptObject*);'
p506
I2000
sS'template LLVMBool abcOP_istypelate(MethodEnv*, int32_t, LLVMAtom);'
p507
I1
sS'template String* abcOP_convert_s(MethodEnv*, ArrayObject*);'
p508
I269
sS'template LLVMBool abcOP_lessequals(MethodEnv*, double, double);'
p509
I679
sS'template uint32_t abcOP_getproperty(MethodEnv*, LLVMMultinamePtrMaybeInt, double, LLVMUnusedParam, ArrayObject*);'
p510
I15
sS'template int32_t abcOP_getproperty(MethodEnv*, LLVMMultinamePtrMaybeInt, uint32_t, LLVMUnusedParam, LLVMAtom);'
p511
I7
sS'template void abcOP_setproperty(MethodEnv*, LLVMMultinamePtrMaybeInt, double, LLVMUnusedParam, ArrayObject*, uint32_t);'
p512
I2
sS'template int32_t abcOP_xarg(MethodEnv*, ExceptionFrame*);'
p513
I1
sS'template LLVMAtom abcOP_coerce_o(MethodEnv*, ScriptObject*);'
p514
I799
sS'template String* abcOP_add(MethodEnv*, String*, double);'
p515
I3848
sS'template void abcOP_setproperty(MethodEnv*, Multiname*, ScriptObject*, LLVMUnusedParam, ScriptObject*, ScriptObject*);'
p516
I147
sS'template LLVMBool abcOP_lessequals(MethodEnv*, LLVMAtom, LLVMAtom);'
p517
I25792
sS'template QNameObject* abcOP_upcast(MethodEnv*, ScriptObject*);'
p518
I13
sS'template LLVMBool abcOP_convert_b(MethodEnv*, double);'
p519
I343
sS'template void abcOP_initproperty(MethodEnv*, Multiname*, String*, LLVMUnusedParam, ScriptObject*, String*);'
p520
I1
sS'template void abcOP_setproperty_nonc(MethodEnv*, LLVMMultinamePtrMaybeInt, uint32_t, LLVMUnusedParam, ArrayObject*, LLVMBool);'
p521
I1
sS'template LLVMBool abcOP_lessequals(MethodEnv*, int32_t, uint32_t);'
p522
I15
sS'template void abcOP_setproperty(MethodEnv*, Multiname*, QNameObject*, LLVMUnusedParam, LLVMAtom, LLVMAtom);'
p523
I2
sS'template LLVMAtom abcOP_construct(MethodEnv*, LLVMAtom, uint32_t, ...);'
p524
I5491
sS'template double abcOP_modulo(MethodEnv*, double, double);'
p525
I143
sS'template LLVMBool abcOP_not(MethodEnv*, String*);'
p526
I743
sS'template LLVMAtom abcOP_String_search(MethodEnv*, String*, LLVMAtom);'
p527
I5
sS'template LLVMAtom abcOP_call(MethodEnv*, ScriptObject*, char*, ...);'
p528
I1
sS'template LLVMBool abcOP_istypelate(MethodEnv*, double, double);'
p529
I1
sS'template ArrayObject* abcOP_astypelate(MethodEnv*, ScriptObject*, ScriptObject*);'
p530
I13
sS'template void abcOP_setproperty(MethodEnv*, LLVMMultinamePtrMaybeInt, int32_t, LLVMUnusedParam, ScriptObject*, ScriptObject*);'
p531
I136
sS'template void abcOP_setproperty(MethodEnv*, Multiname*, LLVMUnusedParam, LLVMUnusedParam, LLVMAtom, Namespace*);'
p532
I40
sS'template LLVMAtom abcOP_add(MethodEnv*, ArrayObject*, ArrayObject*);'
p533
I1
sS'template void abcOP_setproperty_nonc(MethodEnv*, Multiname*, LLVMUnusedParam, LLVMUnusedParam, ScriptObject*, double);'
p534
I46
sS'template void abcOP_initproperty(MethodEnv*, Multiname*, LLVMUnusedParam, LLVMUnusedParam, ScriptObject*, ScriptObject*);'
p535
I252743
sS'template LLVMAtom abcOP_loadundefined(MethodEnv*);'
p536
I1377698
sS'template LLVMAtom abcOP_getproperty_nonc(MethodEnv*, Multiname*, LLVMUnusedParam, LLVMUnusedParam, ArrayObject*);'
p537
I38
sS'template int32_t abcOP_getproperty(MethodEnv*, LLVMMultinamePtrMaybeInt, double, LLVMUnusedParam, LLVMAtom);'
p538
I34
sS'template double abcOP_getproperty(MethodEnv*, LLVMMultinamePtrMaybeInt, uint32_t, LLVMUnusedParam, ScriptObject*);'
p539
I6
sS'template ScriptObject* abcOP_getslot(MethodEnv*, char*, ScriptObject*);'
p540
I36920
sS'template void abcOP_setproperty(MethodEnv*, LLVMMultinamePtrMaybeInt, int32_t, LLVMUnusedParam, LLVMAtom, double);'
p541
I320
sS'template uint32_t abcOP_getproperty_nonc(MethodEnv*, LLVMMultinamePtrMaybeInt, double, LLVMUnusedParam, ScriptObject*);'
p542
I2
sS'template LLVMBool abcOP_convert_b(MethodEnv*, int32_t);'
p543
I605
sS'template double abcOP_decrement(MethodEnv*, int32_t);'
p544
I1514
sS'template void abcOP_setproperty_nonc(MethodEnv*, LLVMMultinamePtrMaybeInt, LLVMAtom, LLVMUnusedParam, ScriptObject*, ArrayObject*);'
p545
I5
sS'template LLVMAtom abcOP_String_match(MethodEnv*, String*, LLVMAtom);'
p546
I94
sS'template LLVMBool abcOP_greaterequals(MethodEnv*, LLVMAtom, LLVMAtom);'
p547
I4811
sS'template LLVMAtom abcOP_String_replace(MethodEnv*, String*, ScriptObject*, LLVMAtom);'
p548
I2
sS'template double abcOP_add(MethodEnv*, uint32_t, uint32_t);'
p549
I87
sS'template LLVMBool abcOP_in(MethodEnv*, ScriptObject*, ScriptObject*);'
p550
I1
sS'template void abcOP_setproperty_nonc(MethodEnv*, LLVMMultinamePtrMaybeInt, uint32_t, LLVMUnusedParam, ArrayObject*, ScriptObject*);'
p551
I2
sS'template void abcOP_setproperty(MethodEnv*, Multiname*, String*, LLVMUnusedParam, ScriptObject*, LLVMBool);'
p552
I21
sS'template QNameObject* abcOP_coerce(MethodEnv*, Traits**, LLVMAtom);'
p553
I2834
sS'template void abcOP_setproperty(MethodEnv*, LLVMMultinamePtrMaybeInt, LLVMAtom, LLVMUnusedParam, LLVMAtom, LLVMBool);'
p554
I12
sS'template void abcOP_setproperty(MethodEnv*, Multiname*, ScriptObject*, LLVMUnusedParam, ScriptObject*, String*);'
p555
I16
sS'template LLVMAtom abcOP_add(MethodEnv*, int32_t, LLVMAtom);'
p556
I51629
sS'template void abcOP_setproperty_nonc(MethodEnv*, LLVMMultinamePtrMaybeInt, double, LLVMUnusedParam, LLVMAtom, ArrayObject*);'
p557
I2
sS'template String* abcOP_add(MethodEnv*, String*, LLVMAtom);'
p558
I74722
sS'template void abcOP_setproperty(MethodEnv*, LLVMMultinamePtrMaybeInt, int32_t, LLVMUnusedParam, ArrayObject*, LLVMAtom);'
p559
I152
sS'template ArrayObject* abcOP_String_match(MethodEnv*, String*, LLVMAtom);'
p560
I98
sS'template LLVMBool abcOP_deleteproperty(MethodEnv*, LLVMMultinamePtrMaybeInt, int32_t, LLVMUnusedParam, LLVMAtom);'
p561
I24
sS'template String* abcOP_coerce_s(MethodEnv*, double);'
p562
I63
sS'template LLVMAtom abcOP_call(MethodEnv*, ScriptObject*, uint32_t, ...);'
p563
I4193
sS'template void abcOP_setproperty(MethodEnv*, Multiname*, LLVMUnusedParam, LLVMUnusedParam, ArrayObject*, LLVMAtom);'
p564
I5
sS'template LLVMBool abcOP_lessequals(MethodEnv*, String*, String*);'
p565
I82
sS'template ScriptObject* abcOP_getproperty_nonc(MethodEnv*, Multiname*, LLVMUnusedParam, LLVMUnusedParam, ArrayObject*);'
p566
I4
sS'template double abcOP_multiply(MethodEnv*, uint32_t, double);'
p567
I56
sS'template LLVMAtom abcOP_getproperty(MethodEnv*, LLVMMultinamePtrMaybeInt, LLVMAtom, LLVMUnusedParam, LLVMAtom);'
p568
I50164
sS'template LLVMAtom abcOP_newcatch(MethodEnv*, int32_t, char*);'
p569
I1965
sS'template void abcOP_setproperty_nonc(MethodEnv*, LLVMMultinamePtrMaybeInt, LLVMAtom, LLVMUnusedParam, LLVMAtom, double);'
p570
I60
sS'template LLVMBool abcOP_loadtrue(MethodEnv*);'
p571
I352444
sS'template void abcOP_setproperty(MethodEnv*, Multiname*, ScriptObject*, LLVMUnusedParam, ScriptObject*, LLVMAtom);'
p572
I47
sS'template void abcOP_setproperty_nonc(MethodEnv*, LLVMMultinamePtrMaybeInt, LLVMAtom, LLVMUnusedParam, LLVMAtom, ScriptObject*);'
p573
I20
sS'template void abcOP_setproperty(MethodEnv*, Multiname*, LLVMUnusedParam, LLVMUnusedParam, ArrayObject*, double);'
p574
I6
sS'template LLVMBool abcOP_equals(MethodEnv*, String*, String*);'
p575
I38973
sS'template uint32_t abcOP_getproperty_nonc(MethodEnv*, LLVMMultinamePtrMaybeInt, uint32_t, LLVMUnusedParam, ArrayObject*);'
p576
I3
sS'template int32_t abcOP_getproperty_nonc(MethodEnv*, LLVMMultinamePtrMaybeInt, uint32_t, LLVMUnusedParam, ScriptObject*);'
p577
I8
sS'template void abcOP_setproperty_nonc(MethodEnv*, LLVMMultinamePtrMaybeInt, int32_t, LLVMUnusedParam, ScriptObject*, double);'
p578
I121
sS'template String* abcOP_convert_s(MethodEnv*, ScriptObject*);'
p579
I126
sS'template LLVMAtom abcOP_callproperty(MethodEnv*, Multiname*, LLVMUnusedParam, LLVMUnusedParam, LLVMBool, uint32_t, ...);'
p580
I141
sS'template void abcOP_setproperty(MethodEnv*, LLVMMultinamePtrMaybeInt, int32_t, LLVMUnusedParam, ScriptObject*, int32_t);'
p581
I265
sS'template void abcOP_setcallee(MethodEnv*, ArrayObject*, ScriptObject*);'
p582
I39856
sS'template LLVMAtom abcOP_String_charAt(MethodEnv*, String*, int32_t);'
p583
I3
sS'template double abcOP_divide(MethodEnv*, uint32_t, int32_t);'
p584
I80
sS'template uint32_t abcOP_getproperty(MethodEnv*, LLVMMultinamePtrMaybeInt, int32_t, LLVMUnusedParam, ArrayObject*);'
p585
I23
sS'template double abcOP_subtract(MethodEnv*, uint32_t, double);'
p586
I54
sS'template LLVMBool abcOP_greaterthan(MethodEnv*, LLVMBool, LLVMBool);'
p587
I4
sS'template void abcOP_setslot_nonc(MethodEnv*, char*, ScriptObject*, Namespace*);'
p588
I23
sS'template void abcOP_setproperty_nonc(MethodEnv*, LLVMMultinamePtrMaybeInt, int32_t, LLVMUnusedParam, ArrayObject*, int32_t);'
p589
I98
sS'template LLVMBool abcOP_greaterthan(MethodEnv*, ScriptObject*, ScriptObject*);'
p590
I5
sS'template LLVMAtom abcOP_upcast(MethodEnv*, ArrayObject*);'
p591
I12725
sS'template ScriptObject* abcOP_getouterscope(MethodEnv*, uint32_t);'
p592
I735984
sS'template void abcOP_setproperty(MethodEnv*, Multiname*, ScriptObject*, LLVMUnusedParam, LLVMAtom, LLVMAtom);'
p593
I4
sS'template String* abcOP_getproperty(MethodEnv*, LLVMMultinamePtrMaybeInt, uint32_t, LLVMUnusedParam, ScriptObject*);'
p594
I1
sS'template double abcOP_Math_sin(MethodEnv*, double);'
p595
I290
sS'template int32_t abcOP_getproperty(MethodEnv*, LLVMMultinamePtrMaybeInt, uint32_t, LLVMUnusedParam, ArrayObject*);'
p596
I15
sS'template LLVMBool abcOP_strictequals(MethodEnv*, uint32_t, LLVMAtom);'
p597
I22
sS'template void abcOP_callsuper(MethodEnv*, Multiname*, LLVMUnusedParam, LLVMUnusedParam, uint32_t, ...);'
p598
I33
sS'template double abcOP_multiply(MethodEnv*, int32_t, int32_t);'
p599
I637
sS'template void abcOP_setproperty(MethodEnv*, LLVMMultinamePtrMaybeInt, double, LLVMUnusedParam, LLVMAtom, double);'
p600
I8
sS'template void abcOP_setproperty(MethodEnv*, Multiname*, LLVMUnusedParam, LLVMUnusedParam, ScriptObject*, ScriptObject*);'
p601
I49
sS'template double abcOP_multiply(MethodEnv*, uint32_t, uint32_t);'
p602
I17
sS'template LLVMBool abcOP_lessequals(MethodEnv*, uint32_t, uint32_t);'
p603
I45
sS'template uint32_t abcOP_getproperty(MethodEnv*, Multiname*, LLVMUnusedParam, LLVMUnusedParam, ScriptObject*);'
p604
I3
sS'template double abcOP_divide(MethodEnv*, int32_t, String*);'
p605
I2
sS'template ScriptObject* abcOP_newclass(MethodEnv*, Traits**, Traits**, Traits***, uint32_t, uint32_t, LLVMAtom*, ScriptObject*, uint32_t);'
p606
I250112
sS'template void abcOP_setproperty(MethodEnv*, Multiname*, String*, LLVMUnusedParam, ScriptObject*, double);'
p607
I23
sS'template double abcOP_Math_round(MethodEnv*, double);'
p608
I891
sS'template double abcOP_modulo(MethodEnv*, ScriptObject*, String*);'
p609
I1
sS'template double abcOP_constructprop(MethodEnv*, Multiname*, LLVMUnusedParam, LLVMUnusedParam, uint32_t, ...);'
p610
I378
sS'template void abcOP_setproperty_nonc(MethodEnv*, LLVMMultinamePtrMaybeInt, double, LLVMUnusedParam, ArrayObject*, String*);'
p611
I5
sS'template int32_t abcOP_convert_i(MethodEnv*, String*);'
p612
I124
sS'template LLVMBool abcOP_greaterequals(MethodEnv*, int32_t, double);'
p613
I126
sS'template double abcOP_subtract(MethodEnv*, LLVMAtom, LLVMAtom);'
p614
I26648
sS'template String* abcOP_coerce_s(MethodEnv*, LLVMBool);'
p615
I15
sS'template double abcOP_multiply(MethodEnv*, ScriptObject*, ScriptObject*);'
p616
I1
sS'template void abcOP_setproperty_nonc(MethodEnv*, LLVMMultinamePtrMaybeInt, uint32_t, LLVMUnusedParam, ArrayObject*, String*);'
p617
I4
sS'template void abcOP_setproperty(MethodEnv*, Multiname*, ScriptObject*, LLVMUnusedParam, LLVMAtom, int32_t);'
p618
I4
sS'template double abcOP_increment(MethodEnv*, double);'
p619
I19318
sS'template void abcOP_setproperty_nonc(MethodEnv*, LLVMMultinamePtrMaybeInt, double, LLVMUnusedParam, LLVMAtom, double);'
p620
I3
sS'template LLVMBool abcOP_greaterthan(MethodEnv*, int32_t, uint32_t);'
p621
I44
sS'template LLVMAtom abcOP_add(MethodEnv*, ScriptObject*, LLVMAtom);'
p622
I20
sS'template void abcOP_setproperty_nonc(MethodEnv*, LLVMMultinamePtrMaybeInt, int32_t, LLVMUnusedParam, LLVMAtom, double);'
p623
I62
sS'template String* abcOP_add(MethodEnv*, String*, LLVMBool);'
p624
I193
sS'template double abcOP_modulo(MethodEnv*, LLVMAtom, uint32_t);'
p625
I10
sS'template LLVMBool abcOP_lessthan(MethodEnv*, double, uint32_t);'
p626
I5747
sS'template void abcOP_setproperty(MethodEnv*, Multiname*, LLVMUnusedParam, Namespace*, LLVMAtom, int32_t);'
p627
I2
sS'template double abcOP_divide(MethodEnv*, LLVMAtom, int32_t);'
p628
I5090
sS'template void abcOP_initproperty(MethodEnv*, Multiname*, LLVMUnusedParam, LLVMUnusedParam, LLVMAtom, ScriptObject*);'
p629
I23
sS'template LLVMBool abcOP_deleteproperty(MethodEnv*, LLVMMultinamePtrMaybeInt, uint32_t, LLVMUnusedParam, LLVMAtom);'
p630
I2826
sS'template double abcOP_increment(MethodEnv*, int32_t);'
p631
I1228
sS'template LLVMBool abcOP_lessequals(MethodEnv*, int32_t, int32_t);'
p632
I1032
sS'template void abcOP_setproperty_nonc(MethodEnv*, LLVMMultinamePtrMaybeInt, int32_t, LLVMUnusedParam, LLVMAtom, String*);'
p633
I71
sS'template LLVMBool abcOP_equals(MethodEnv*, LLVMBool, String*);'
p634
I3
sS'template LLVMAtom abcOP_add(MethodEnv*, LLVMAtom, LLVMAtom);'
p635
I125684
sS'template void abcOP_setproperty(MethodEnv*, LLVMMultinamePtrMaybeInt, LLVMAtom, LLVMUnusedParam, LLVMAtom, LLVMAtom);'
p636
I670
sS'template LLVMAtom abcOP_add(MethodEnv*, LLVMAtom, String*);'
p637
I649
sS'template void abcOP_setproperty_nonc(MethodEnv*, LLVMMultinamePtrMaybeInt, int32_t, LLVMUnusedParam, ArrayObject*, LLVMAtom);'
p638
I166
sS'template String* abcOP_esc_xattr(MethodEnv*, LLVMAtom);'
p639
I6
sS'template void abcOP_setproperty_nonc(MethodEnv*, LLVMMultinamePtrMaybeInt, double, LLVMUnusedParam, LLVMAtom, int32_t);'
p640
I56
sS'template void abcOP_setproperty(MethodEnv*, Multiname*, LLVMUnusedParam, LLVMUnusedParam, LLVMAtom, ScriptObject*);'
p641
I767721
sS'template int32_t abcOP_getproperty(MethodEnv*, LLVMMultinamePtrMaybeInt, int32_t, LLVMUnusedParam, ScriptObject*);'
p642
I338
sS'template LLVMBool abcOP_equals(MethodEnv*, ScriptObject*, String*);'
p643
I8
sS'template double abcOP_modulo(MethodEnv*, ScriptObject*, ScriptObject*);'
p644
I2
sS'template ScriptObject* abcOP_constructprop(MethodEnv*, Multiname*, LLVMUnusedParam, LLVMUnusedParam, char*, ...);'
p645
I649
sS'template void abcOP_setproperty(MethodEnv*, LLVMMultinamePtrMaybeInt, int32_t, LLVMUnusedParam, LLVMAtom, ArrayObject*);'
p646
I65
sS'template void abcOP_setproperty(MethodEnv*, LLVMMultinamePtrMaybeInt, uint32_t, LLVMUnusedParam, ScriptObject*, LLVMBool);'
p647
I3
sS'template double abcOP_subtract(MethodEnv*, LLVMAtom, ArrayObject*);'
p648
I1
sS'template void abcOP_setproperty(MethodEnv*, Multiname*, String*, LLVMUnusedParam, ScriptObject*, String*);'
p649
I59
sS'template void abcOP_setproperty_nonc(MethodEnv*, LLVMMultinamePtrMaybeInt, int32_t, LLVMUnusedParam, ScriptObject*, String*);'
p650
I1
sS'template LLVMBool abcOP_strictequals(MethodEnv*, String*, int32_t);'
p651
I1
sS'template LLVMBool abcOP_equals(MethodEnv*, LLVMBool, LLVMBool);'
p652
I1913
sS'template void abcOP_setproperty_nonc(MethodEnv*, LLVMMultinamePtrMaybeInt, LLVMAtom, LLVMUnusedParam, ScriptObject*, LLVMAtom);'
p653
I23
sS'template int32_t abcOP_decrement_i(MethodEnv*, int32_t);'
p654
I28939
sS'template LLVMBool abcOP_lessequals(MethodEnv*, uint32_t, int32_t);'
p655
I2851
sS'template Namespace* abcOP_getslot_nonc(MethodEnv*, char*, ScriptObject*);'
p656
I87
sS'template void abcOP_nullcheck(MethodEnv*, Namespace*);'
p657
I5668
sS'template int32_t abcOP_true(MethodEnv*, ArrayObject*);'
p658
I897
sS'template void abcOP_pushwith(MethodEnv*, LLVMAtom);'
p659
I6730
sS'template LLVMAtom abcOP_coerce_a(MethodEnv*, LLVMAtom);'
p660
I1347298
sS'template void abcOP_setproperty(MethodEnv*, LLVMMultinamePtrMaybeInt, double, LLVMUnusedParam, ScriptObject*, uint32_t);'
p661
I1
sS'template void abcOP_setproperty_nonc(MethodEnv*, Multiname*, ArrayObject*, LLVMUnusedParam, ScriptObject*, int32_t);'
p662
I8
sS'template double abcOP_subtract(MethodEnv*, uint32_t, int32_t);'
p663
I102
sS'template LLVMBool abcOP_strictequals(MethodEnv*, String*, ScriptObject*);'
p664
I11
sS'template void abcOP_setproperty(MethodEnv*, Multiname*, String*, LLVMUnusedParam, ArrayObject*, ArrayObject*);'
p665
I1
sS'template LLVMBool abcOP_equals(MethodEnv*, QNameObject*, ScriptObject*);'
p666
I9
sS'template LLVMBool abcOP_equals(MethodEnv*, QNameObject*, String*);'
p667
I1
sS'template void abcOP_setproperty(MethodEnv*, LLVMMultinamePtrMaybeInt, uint32_t, LLVMUnusedParam, ScriptObject*, ScriptObject*);'
p668
I26
sS'template void abcOP_setproperty_nonc(MethodEnv*, LLVMMultinamePtrMaybeInt, LLVMAtom, LLVMUnusedParam, LLVMAtom, ArrayObject*);'
p669
I10
sS'template void abcOP_setproperty_nonc(MethodEnv*, Multiname*, QNameObject*, LLVMUnusedParam, ScriptObject*, double);'
p670
I43
sS'template LLVMBool abcOP_loadfalse(MethodEnv*);'
p671
I83984
sS'template String* abcOP_add(MethodEnv*, String*, ScriptObject*);'
p672
I163
sS'template double abcOP_divide(MethodEnv*, double, LLVMAtom);'
p673
I2460
sS'template void abcOP_setproperty_nonc(MethodEnv*, LLVMMultinamePtrMaybeInt, LLVMAtom, LLVMUnusedParam, LLVMAtom, LLVMBool);'
p674
I2
sS'template double abcOP_getproperty_nonc(MethodEnv*, LLVMMultinamePtrMaybeInt, LLVMAtom, LLVMUnusedParam, ScriptObject*);'
p675
I1
sS'template void abcOP_setslot_nonc(MethodEnv*, char*, ScriptObject*, QNameObject*);'
p676
I92
sS'template void abcOP_initproperty(MethodEnv*, Multiname*, LLVMUnusedParam, LLVMUnusedParam, LLVMAtom, int32_t);'
p677
I6
sS'template LLVMBool abcOP_instanceof(MethodEnv*, ScriptObject*, ScriptObject*);'
p678
I16
sS'template LLVMAtom abcOP_getproperty_nonc(MethodEnv*, LLVMMultinamePtrMaybeInt, int32_t, LLVMUnusedParam, ScriptObject*);'
p679
I22648
sS'template LLVMAtom abcOP_getproperty(MethodEnv*, Multiname*, LLVMBool, LLVMUnusedParam, LLVMAtom);'
p680
I1
sS'template LLVMBool abcOP_lessequals(MethodEnv*, int32_t, LLVMAtom);'
p681
I4704
sS'template LLVMAtom abcOP_getdescendants(MethodEnv*, Multiname*, LLVMUnusedParam, Namespace*, LLVMAtom);'
p682
I2
sS'template LLVMBool abcOP_hasnext2(MethodEnv*, LLVMAtom, int32_t, int32_t*, LLVMAtom*);'
p683
I32322
sS'template double abcOP_negate(MethodEnv*, uint32_t);'
p684
I6
sS'template int32_t* abcOP_handlerFromMethodEnv(MethodEnv*, ScriptObject*);'
p685
I2490688
sS'template double abcOP_getproperty(MethodEnv*, Multiname*, LLVMUnusedParam, LLVMUnusedParam, LLVMAtom);'
p686
I9457
sS'template double abcOP_divide(MethodEnv*, int32_t, int32_t);'
p687
I837
sS'template LLVMBool abcOP_equals(MethodEnv*, double, uint32_t);'
p688
I11334
sS'template int32_t abcOP_increment_i(MethodEnv*, int32_t);'
p689
I111435
sS'template double abcOP_getproperty(MethodEnv*, LLVMMultinamePtrMaybeInt, LLVMAtom, LLVMUnusedParam, LLVMAtom);'
p690
I11827
sS'template LLVMAtom abcOP_astypelate(MethodEnv*, ScriptObject*, LLVMAtom);'
p691
I31
sS'template LLVMBool abcOP_strictequals(MethodEnv*, LLVMAtom, int32_t);'
p692
I5806
sS'template void abcOP_setproperty(MethodEnv*, Multiname*, QNameObject*, LLVMUnusedParam, ScriptObject*, double);'
p693
I2
sS'template LLVMAtom abcOP_getproperty(MethodEnv*, LLVMMultinamePtrMaybeInt, uint32_t, LLVMUnusedParam, LLVMAtom);'
p694
I62
sS'template LLVMAtom abcOP_astypelate(MethodEnv*, LLVMAtom, LLVMAtom);'
p695
I10
sS'template LLVMAtom abcOP_getproperty(MethodEnv*, Multiname*, ArrayObject*, LLVMUnusedParam, ScriptObject*);'
p696
I1
sS'template LLVMAtom abcOP_getproperty(MethodEnv*, LLVMMultinamePtrMaybeInt, LLVMAtom, LLVMUnusedParam, ScriptObject*);'
p697
I334
sS'template void abcOP_setproperty_nonc(MethodEnv*, Multiname*, String*, LLVMUnusedParam, ScriptObject*, int32_t);'
p698
I50
sS'template LLVMBool abcOP_instanceof(MethodEnv*, LLVMAtom, LLVMAtom);'
p699
I367
sS'template void abcOP_setproperty_nonc(MethodEnv*, LLVMMultinamePtrMaybeInt, int32_t, LLVMUnusedParam, ArrayObject*, LLVMBool);'
p700
I5
sS'template void abcOP_setproperty_nonc(MethodEnv*, LLVMMultinamePtrMaybeInt, uint32_t, LLVMUnusedParam, LLVMAtom, LLVMAtom);'
p701
I14130
sS'template LLVMBool abcOP_equals(MethodEnv*, int32_t, LLVMAtom);'
p702
I53
sS'template LLVMBool abcOP_lessthan(MethodEnv*, ScriptObject*, LLVMAtom);'
p703
I22
sS'template void abcOP_setproperty(MethodEnv*, Multiname*, LLVMUnusedParam, LLVMUnusedParam, ScriptObject*, ArrayObject*);'
p704
I1
sS'template LLVMAtom abcOP_coerce_a(MethodEnv*, ScriptObject*);'
p705
I585126
sS'template String* abcOP_load(int32_t*);'
p706
I1068727
sS'template void abcOP_setproperty_nonc(MethodEnv*, LLVMMultinamePtrMaybeInt, uint32_t, LLVMUnusedParam, ArrayObject*, LLVMAtom);'
p707
I19
sS'template void abcOP_setproperty(MethodEnv*, Multiname*, String*, LLVMUnusedParam, ArrayObject*, int32_t);'
p708
I35
sS'template void abcOP_setproperty_nonc(MethodEnv*, LLVMMultinamePtrMaybeInt, uint32_t, LLVMUnusedParam, ArrayObject*, int32_t);'
p709
I18
sS'template LLVMBool abcOP_lessthan(MethodEnv*, int32_t, int32_t);'
p710
I8790
sS'template ScriptObject* abcOP_getproperty(MethodEnv*, Multiname*, LLVMUnusedParam, LLVMUnusedParam, ArrayObject*);'
p711
I6
sS'template LLVMAtom abcOP_String_substr(MethodEnv*, String*, int32_t, int32_t);'
p712
I59
sS'template double abcOP_String_charCodeAt(MethodEnv*, String*, double);'
p713
I3494
sS'template LLVMBool abcOP_strictequals(MethodEnv*, int32_t, LLVMAtom);'
p714
I417
sS'template LLVMBool abcOP_instanceof(MethodEnv*, int32_t, int32_t);'
p715
I1
sS'template double abcOP_decrement(MethodEnv*, double);'
p716
I7193
sS'template double abcOP_subtract(MethodEnv*, LLVMAtom, uint32_t);'
p717
I3
sS'template void abcOP_setproperty_nonc(MethodEnv*, Multiname*, LLVMUnusedParam, LLVMUnusedParam, LLVMAtom, uint32_t);'
p718
I17026
sS'template LLVMBool abcOP_strictequals(MethodEnv*, LLVMAtom, LLVMAtom);'
p719
I79925
sS'template int32_t abcOP_subtract_i(MethodEnv*, int32_t, int32_t);'
p720
I19524
sS'template void abcOP_setproperty(MethodEnv*, LLVMMultinamePtrMaybeInt, uint32_t, LLVMUnusedParam, LLVMAtom, int32_t);'
p721
I6
sS'template ScriptObject* abcOP_applytype(MethodEnv*, ScriptObject*, uint32_t, ...);'
p722
I2072
sS'template void abcOP_setproperty(MethodEnv*, Multiname*, String*, LLVMUnusedParam, ScriptObject*, ScriptObject*);'
p723
I196
sS'template double abcOP_divide(MethodEnv*, double, ScriptObject*);'
p724
I1
sS'template LLVMBool abcOP_deleteproperty(MethodEnv*, Multiname*, ScriptObject*, LLVMUnusedParam, ScriptObject*);'
p725
I111
sS'template ScriptObject* abcOP_getproperty_nonc(MethodEnv*, LLVMMultinamePtrMaybeInt, int32_t, LLVMUnusedParam, ScriptObject*);'
p726
I611
sS'template LLVMAtom abcOP_String_search(MethodEnv*, String*, ScriptObject*);'
p727
I3
sS'template void abcOP_setproperty_nonc(MethodEnv*, Multiname*, LLVMUnusedParam, LLVMUnusedParam, double, double);'
p728
I3
sS'template void abcOP_setslot_nonc(MethodEnv*, char*, ScriptObject*, ArrayObject*);'
p729
I17044
sS'template double abcOP_lf32(MethodEnv*, int32_t);'
p730
I6
sS'template LLVMAtom abcOP_String_substring(MethodEnv*, String*, int32_t, LLVMAtom);'
p731
I191
sS'template LLVMAtom abcOP_astypelate(MethodEnv*, ArrayObject*, ScriptObject*);'
p732
I1
sS'template void abcOP_setproperty(MethodEnv*, LLVMMultinamePtrMaybeInt, double, LLVMUnusedParam, LLVMAtom, ArrayObject*);'
p733
I2
sS'template void abcOP_setproperty_nonc(MethodEnv*, LLVMMultinamePtrMaybeInt, double, LLVMUnusedParam, ScriptObject*, LLVMAtom);'
p734
I11
sS'template void abcOP_setproperty(MethodEnv*, LLVMMultinamePtrMaybeInt, uint32_t, LLVMUnusedParam, ScriptObject*, int32_t);'
p735
I12
sS'template uint32_t abcOP_getproperty(MethodEnv*, LLVMMultinamePtrMaybeInt, uint32_t, LLVMUnusedParam, ArrayObject*);'
p736
I1
sS'template double abcOP_subtract(MethodEnv*, double, int32_t);'
p737
I3255
sS'template int32_t abcOP_getproperty_nonc(MethodEnv*, LLVMMultinamePtrMaybeInt, int32_t, LLVMUnusedParam, ArrayObject*);'
p738
I109
sS'template LLVMAtom abcOP_astype(MethodEnv*, LLVMMultinameIndex, double);'
p739
I1
sS'template LLVMBool abcOP_lessequals(MethodEnv*, LLVMAtom, ScriptObject*);'
p740
I4
sS'template void abcOP_setproperty(MethodEnv*, Multiname*, ScriptObject*, LLVMUnusedParam, ScriptObject*, int32_t);'
p741
I77
sS'template int32_t abcOP_String_lastIndexOf(MethodEnv*, String*, String*, double);'
p742
I3060
sS'template LLVMAtom abcOP_String_substring(MethodEnv*, String*, LLVMAtom, int32_t);'
p743
I191
sS'template LLVMBool abcOP_greaterthan(MethodEnv*, uint32_t, LLVMAtom);'
p744
I2830
sS'template void abcOP_initproperty(MethodEnv*, Multiname*, LLVMUnusedParam, LLVMUnusedParam, ScriptObject*, int32_t);'
p745
I1584
sS'template void abcOP_setproperty(MethodEnv*, LLVMMultinamePtrMaybeInt, double, LLVMUnusedParam, ArrayObject*, ScriptObject*);'
p746
I27
sS'template LLVMAtom abcOP_callsuper(MethodEnv*, Multiname*, LLVMUnusedParam, LLVMUnusedParam, uint32_t, ...);'
p747
I6
sS'template LLVMBool abcOP_greaterequals(MethodEnv*, uint32_t, int32_t);'
p748
I2953
sS'template int32_t abcOP_getproperty_nonc(MethodEnv*, Multiname*, LLVMUnusedParam, LLVMUnusedParam, ScriptObject*);'
p749
I16
sS'template void abcOP_callproperty(MethodEnv*, Multiname*, LLVMUnusedParam, LLVMUnusedParam, LLVMAtom, char*, ...);'
p750
I50
sS'template LLVMAtom abcOP_applytype(MethodEnv*, LLVMAtom, uint32_t, ...);'
p751
I1
sS'template LLVMAtom abcOP_coerce_a(MethodEnv*, Namespace*);'
p752
I6009
sS'template int32_t abcOP_getproperty_nonc(MethodEnv*, LLVMMultinamePtrMaybeInt, int32_t, LLVMUnusedParam, LLVMAtom);'
p753
I117
sS'template LLVMBool abcOP_equals(MethodEnv*, uint32_t, int32_t);'
p754
I21226
sS'template void abcOP_setproperty(MethodEnv*, LLVMMultinamePtrMaybeInt, int32_t, LLVMUnusedParam, ArrayObject*, double);'
p755
I79
sS'template void abcOP_setproperty_nonc(MethodEnv*, Multiname*, String*, LLVMUnusedParam, LLVMAtom, int32_t);'
p756
I45
sS'template LLVMBool abcOP_not(MethodEnv*, double);'
p757
I62
sS'template int32_t abcOP_getproperty(MethodEnv*, Multiname*, LLVMUnusedParam, LLVMUnusedParam, ArrayObject*);'
p758
I3
sS'template LLVMBool abcOP_greaterequals(MethodEnv*, double, double);'
p759
I766
sS'template double abcOP_subtract(MethodEnv*, LLVMAtom, double);'
p760
I7638
sS'template void abcOP_pushscope(MethodEnv*, String*);'
p761
I28260
sS'template double abcOP_getproperty(MethodEnv*, Multiname*, LLVMUnusedParam, LLVMUnusedParam, ScriptObject*);'
p762
I91
sS'template void abcOP_setproperty(MethodEnv*, Multiname*, LLVMUnusedParam, Namespace*, ScriptObject*, ArrayObject*);'
p763
I2
sS'template String* abcOP_esc_xattr(MethodEnv*, int32_t);'
p764
I18
sS'template LLVMAtom abcOP_throwCallOfNonFunctionError(MethodEnv*);'
p765
I2
sS'template LLVMBool abcOP_lessthan(MethodEnv*, LLVMAtom, String*);'
p766
I10
sS'template uint32_t abcOP_convert_u(MethodEnv*, LLVMBool);'
p767
I8
sS'template LLVMBool abcOP_strictequals(MethodEnv*, LLVMAtom, LLVMBool);'
p768
I453
sS'template LLVMAtom abcOP_getproperty_nonc(MethodEnv*, Multiname*, String*, LLVMUnusedParam, ScriptObject*);'
p769
I806
sS'template LLVMBool abcOP_strictequals(MethodEnv*, int32_t, int32_t);'
p770
I1596
sS'template LLVMBool abcOP_greaterthan(MethodEnv*, LLVMAtom, LLVMBool);'
p771
I1
sS'template LLVMBool abcOP_getslot_nonc(MethodEnv*, char*, ScriptObject*);'
p772
I24057
sS'template LLVMAtom abcOP_coerce_a(MethodEnv*, QNameObject*);'
p773
I8
sS'template LLVMAtom abcOP_getproperty(MethodEnv*, LLVMMultinamePtrMaybeInt, LLVMAtom, LLVMUnusedParam, ArrayObject*);'
p774
I4150
sS'template void abcOP_initproperty(MethodEnv*, Multiname*, LLVMUnusedParam, LLVMUnusedParam, ScriptObject*, ArrayObject*);'
p775
I774
sS'template LLVMAtom abcOP_String_match(MethodEnv*, String*, ScriptObject*);'
p776
I118
sS'template ArrayObject* abcOP_newarray(MethodEnv*, uint32_t, ...);'
p777
I184607
sS'template LLVMAtom abcOP_astypelate(MethodEnv*, LLVMAtom, ScriptObject*);'
p778
I463
sS'template double abcOP_Math_asin(MethodEnv*, double);'
p779
I20
sS'template double abcOP_convert_d(MethodEnv*, LLVMAtom);'
p780
I290049
sS'template LLVMBool abcOP_greaterequals(MethodEnv*, LLVMAtom, String*);'
p781
I32
sS'template double abcOP_getslot_nonc(MethodEnv*, char*, ScriptObject*);'
p782
I114978
sS'template String* abcOP_esc_xelem(MethodEnv*, LLVMAtom);'
p783
I25
sS'template LLVMAtom abcOP_add(MethodEnv*, ScriptObject*, uint32_t);'
p784
I2
sS'template int32_t abcOP_callproperty(MethodEnv*, Multiname*, LLVMUnusedParam, LLVMUnusedParam, ScriptObject*, uint32_t, ...);'
p785
I3
sS'template double abcOP_getproperty_nonc(MethodEnv*, Multiname*, String*, LLVMUnusedParam, LLVMAtom);'
p786
I3
sS'template void abcOP_setproperty_nonc(MethodEnv*, LLVMMultinamePtrMaybeInt, LLVMAtom, LLVMUnusedParam, ArrayObject*, ScriptObject*);'
p787
I1
sS'template void abcOP_setproperty(MethodEnv*, Multiname*, String*, LLVMUnusedParam, ArrayObject*, ScriptObject*);'
p788
I34
sS'template void abcOP_setproperty(MethodEnv*, LLVMMultinamePtrMaybeInt, uint32_t, LLVMUnusedParam, ScriptObject*, double);'
p789
I8
sS'template LLVMBool abcOP_lessthan(MethodEnv*, double, int32_t);'
p790
I4063
sS'template LLVMBool abcOP_greaterequals(MethodEnv*, double, LLVMAtom);'
p791
I28
sS'template void abcOP_setproperty(MethodEnv*, LLVMMultinamePtrMaybeInt, double, LLVMUnusedParam, LLVMAtom, LLVMAtom);'
p792
I10115
sS'template void abcOP_setproperty(MethodEnv*, LLVMMultinamePtrMaybeInt, double, LLVMUnusedParam, ScriptObject*, ScriptObject*);'
p793
I6
sS'template void abcOP_setproperty(MethodEnv*, Multiname*, LLVMUnusedParam, Namespace*, LLVMAtom, uint32_t);'
p794
I2
sS'template void abcOP_setproperty(MethodEnv*, Multiname*, LLVMUnusedParam, LLVMUnusedParam, ScriptObject*, LLVMAtom);'
p795
I25520
sS'template int32_t abcOP_getproperty_nonc(MethodEnv*, LLVMMultinamePtrMaybeInt, double, LLVMUnusedParam, ArrayObject*);'
p796
I38
sS'template void abcOP_setproperty_nonc(MethodEnv*, Multiname*, String*, LLVMUnusedParam, LLVMAtom, double);'
p797
I97
sS'template void abcOP_setproperty(MethodEnv*, Multiname*, LLVMUnusedParam, LLVMUnusedParam, LLVMAtom, ArrayObject*);'
p798
I312
sS'template LLVMBool abcOP_lessthan(MethodEnv*, double, double);'
p799
I27087
sS'template int32_t* abcOP_handlerFromMethodEnv(MethodEnv*, QNameObject*);'
p800
I31090
sS'template ScriptObject* abcOP_getproperty(MethodEnv*, Multiname*, LLVMUnusedParam, LLVMUnusedParam, ScriptObject*);'
p801
I56723
sS'template double abcOP_multiply(MethodEnv*, double, uint32_t);'
p802
I66
sS'template LLVMBool abcOP_greaterequals(MethodEnv*, String*, String*);'
p803
I46
sS'template double abcOP_getproperty_nonc(MethodEnv*, LLVMMultinamePtrMaybeInt, double, LLVMUnusedParam, ArrayObject*);'
p804
I38
sS'template LLVMBool abcOP_deleteproperty(MethodEnv*, Multiname*, LLVMUnusedParam, LLVMUnusedParam, LLVMAtom);'
p805
I151
sS'template LLVMBool abcOP_lessequals(MethodEnv*, LLVMAtom, LLVMBool);'
p806
I1
sS'template void abcOP_setproperty_nonc(MethodEnv*, LLVMMultinamePtrMaybeInt, double, LLVMUnusedParam, ArrayObject*, double);'
p807
I50
sS'template void abcOP_setslot_nonc(MethodEnv*, char*, ScriptObject*, String*);'
p808
I139365
sS'template double abcOP_divide(MethodEnv*, double, uint32_t);'
p809
I47
sS'template void abcOP_setproperty(MethodEnv*, LLVMMultinamePtrMaybeInt, double, LLVMUnusedParam, ScriptObject*, ArrayObject*);'
p810
I1
sS'template LLVMBool abcOP_deleteproperty(MethodEnv*, LLVMMultinamePtrMaybeInt, int32_t, LLVMUnusedParam, ScriptObject*);'
p811
I8
sS'template LLVMBool abcOP_equals(MethodEnv*, LLVMAtom, ScriptObject*);'
p812
I16552
sS'template LLVMBool abcOP_equals(MethodEnv*, LLVMAtom, double);'
p813
I21149
sS'template void abcOP_setproperty(MethodEnv*, Multiname*, LLVMUnusedParam, Namespace*, ScriptObject*, String*);'
p814
I4
sS'template void abcOP_setproperty(MethodEnv*, Multiname*, LLVMUnusedParam, LLVMUnusedParam, ScriptObject*, int32_t);'
p815
I67
sS'template void abcOP_setproperty_nonc(MethodEnv*, LLVMMultinamePtrMaybeInt, double, LLVMUnusedParam, LLVMAtom, uint32_t);'
p816
I4
sS'template double abcOP_divide(MethodEnv*, ScriptObject*, uint32_t);'
p817
I1
sS'template double abcOP_modulo(MethodEnv*, int32_t, int32_t);'
p818
I226
sS'template LLVMBool abcOP_instanceof(MethodEnv*, ArrayObject*, ScriptObject*);'
p819
I4
sS'template LLVMAtom abcOP_getproperty_nonc(MethodEnv*, Multiname*, QNameObject*, LLVMUnusedParam, ScriptObject*);'
p820
I9
sS'template int32_t abcOP_getproperty(MethodEnv*, LLVMMultinamePtrMaybeInt, double, LLVMUnusedParam, ArrayObject*);'
p821
I57
sS'template void abcOP_setproperty(MethodEnv*, Multiname*, ScriptObject*, LLVMUnusedParam, LLVMAtom, ArrayObject*);'
p822
I2
sS'template double abcOP_multiply(MethodEnv*, String*, int32_t);'
p823
I3
sS'template void abcOP_setproperty(MethodEnv*, LLVMMultinamePtrMaybeInt, uint32_t, LLVMUnusedParam, LLVMAtom, double);'
p824
I7
sS'template ArrayObject* abcOP_constructprop(MethodEnv*, Multiname*, LLVMUnusedParam, LLVMUnusedParam, char*, ...);'
p825
I448
sS'template int32_t abcOP_true(MethodEnv*, ScriptObject*);'
p826
I9299
sS'template LLVMAtom abcOP_getproperty(MethodEnv*, LLVMMultinamePtrMaybeInt, int32_t, LLVMUnusedParam, ScriptObject*);'
p827
I621
sS'template LLVMBool abcOP_lessthan(MethodEnv*, uint32_t, uint32_t);'
p828
I58380
sS'template void abcOP_setproperty(MethodEnv*, LLVMMultinamePtrMaybeInt, LLVMAtom, LLVMUnusedParam, ScriptObject*, LLVMAtom);'
p829
I34
sS'template double abcOP_getproperty_nonc(MethodEnv*, LLVMMultinamePtrMaybeInt, int32_t, LLVMUnusedParam, LLVMAtom);'
p830
I200
sS'template ArrayObject* abcOP_getslot_nonc(MethodEnv*, char*, ScriptObject*);'
p831
I38903
sS'template void abcOP_setproperty(MethodEnv*, LLVMMultinamePtrMaybeInt, uint32_t, LLVMUnusedParam, LLVMAtom, ScriptObject*);'
p832
I1
sS'template void abcOP_sf64(MethodEnv*, double, int32_t);'
p833
I78
sS'template void abcOP_initproperty(MethodEnv*, Multiname*, LLVMUnusedParam, LLVMUnusedParam, ScriptObject*, LLVMBool);'
p834
I14223
sS'template LLVMAtom abcOP_box(MethodEnv*, uint32_t);'
p835
I19889
sS'template void abcOP_si8(MethodEnv*, int32_t, int32_t);'
p836
I725
sS'template LLVMAtom abcOP_coerce_o(MethodEnv*, LLVMAtom);'
p837
I86672
sS'template ScriptObject* abcOP_getproperty_nonc(MethodEnv*, Multiname*, LLVMUnusedParam, LLVMUnusedParam, LLVMBool);'
p838
I980
sS'template LLVMBool abcOP_deleteproperty(MethodEnv*, Multiname*, String*, LLVMUnusedParam, ScriptObject*);'
p839
I41
sS'template int32_t abcOP_constructprop(MethodEnv*, Multiname*, LLVMUnusedParam, LLVMUnusedParam, uint32_t, ...);'
p840
I16
sS'template double abcOP_convert_d(MethodEnv*, String*);'
p841
I702
sS'template void abcOP_setproperty(MethodEnv*, Multiname*, String*, LLVMUnusedParam, LLVMAtom, ScriptObject*);'
p842
I531
sS'template String* abcOP_esc_xelem(MethodEnv*, LLVMBool);'
p843
I1
sS'template LLVMAtom abcOP_getproperty_nonc(MethodEnv*, LLVMMultinamePtrMaybeInt, double, LLVMUnusedParam, ScriptObject*);'
p844
I114
sS'template double abcOP_increment(MethodEnv*, LLVMAtom);'
p845
I30330
sS'template void abcOP_callproperty(MethodEnv*, Multiname*, LLVMUnusedParam, LLVMUnusedParam, ScriptObject*, uint32_t, ...);'
p846
I79458
sS'template void abcOP_setproperty(MethodEnv*, LLVMMultinamePtrMaybeInt, int32_t, LLVMUnusedParam, ArrayObject*, LLVMBool);'
p847
I34
sS'template void abcOP_nullcheck(MethodEnv*, String*);'
p848
I10798
sS'template int32_t abcOP_getproperty(MethodEnv*, LLVMMultinamePtrMaybeInt, LLVMAtom, LLVMUnusedParam, ArrayObject*);'
p849
I3
sS'template double abcOP_Math_abs(MethodEnv*, double);'
p850
I10470
sS'template LLVMBool abcOP_greaterequals(MethodEnv*, LLVMAtom, ScriptObject*);'
p851
I4
sS'template void abcOP_nullcheck(MethodEnv*, ScriptObject*);'
p852
I669431
sS'template LLVMBool abcOP_in(MethodEnv*, int32_t, ScriptObject*);'
p853
I4
sS'template void abcOP_setproperty(MethodEnv*, LLVMMultinamePtrMaybeInt, uint32_t, LLVMUnusedParam, ArrayObject*, ArrayObject*);'
p854
I1
sS'template LLVMBool abcOP_deleteproperty(MethodEnv*, Multiname*, String*, LLVMUnusedParam, ArrayObject*);'
p855
I2
sS'template void abcOP_setproperty(MethodEnv*, LLVMMultinamePtrMaybeInt, uint32_t, LLVMUnusedParam, ArrayObject*, ScriptObject*);'
p856
I24
sS'template LLVMBool abcOP_deleteproperty(MethodEnv*, Multiname*, LLVMUnusedParam, LLVMUnusedParam, ScriptObject*);'
p857
I67
sS'template void abcOP_setproperty(MethodEnv*, LLVMMultinamePtrMaybeInt, LLVMAtom, LLVMUnusedParam, ArrayObject*, double);'
p858
I2
sS'template ScriptObject* abcOP_xarg(MethodEnv*, ExceptionFrame*);'
p859
I4132
sS'template void abcOP_nullcheck(MethodEnv*, LLVMBool);'
p860
I1
sS'template void abcOP_initproperty(MethodEnv*, Multiname*, LLVMUnusedParam, LLVMUnusedParam, LLVMAtom, double);'
p861
I14
sS'template LLVMAtom abcOP_String_replace(MethodEnv*, String*, LLVMAtom, ScriptObject*);'
p862
I4
sS'template void abcOP_setproperty(MethodEnv*, Multiname*, LLVMUnusedParam, LLVMUnusedParam, LLVMAtom, LLVMBool);'
p863
I956
sS'template void abcOP_setproperty(MethodEnv*, Multiname*, LLVMUnusedParam, LLVMUnusedParam, LLVMAtom, uint32_t);'
p864
I50
sS'template void abcOP_setproperty(MethodEnv*, Multiname*, LLVMUnusedParam, Namespace*, LLVMAtom, LLVMBool);'
p865
I13
sS'template void abcOP_setproperty_nonc(MethodEnv*, LLVMMultinamePtrMaybeInt, uint32_t, LLVMUnusedParam, ScriptObject*, LLVMBool);'
p866
I1
sS'template void abcOP_initproperty(MethodEnv*, Multiname*, LLVMUnusedParam, LLVMUnusedParam, LLVMAtom, LLVMBool);'
p867
I9
sS'template LLVMBool abcOP_not(MethodEnv*, LLVMAtom);'
p868
I4142
sS'template LLVMAtom abcOP_constructprop(MethodEnv*, Multiname*, LLVMUnusedParam, LLVMUnusedParam, uint32_t, ...);'
p869
I31626
sS'template void abcOP_setproperty_nonc(MethodEnv*, Multiname*, String*, LLVMUnusedParam, LLVMAtom, uint32_t);'
p870
I2
sS'template String* abcOP_String_substring(MethodEnv*, String*, double, double);'
p871
I3781
sS'template LLVMBool abcOP_lessequals(MethodEnv*, uint32_t, LLVMAtom);'
p872
I24
sS'template LLVMBool abcOP_equals(MethodEnv*, LLVMAtom, String*);'
p873
I35030
sS'template void abcOP_setproperty_nonc(MethodEnv*, LLVMMultinamePtrMaybeInt, LLVMAtom, LLVMUnusedParam, ScriptObject*, double);'
p874
I14
sS'template LLVMAtom abcOP_newobject(MethodEnv*, uint32_t, ...);'
p875
I22656
sS'template double abcOP_multiply(MethodEnv*, double, double);'
p876
I20564
sS'template void abcOP_setproperty(MethodEnv*, LLVMMultinamePtrMaybeInt, int32_t, LLVMUnusedParam, ScriptObject*, LLVMBool);'
p877
I25
sS'template LLVMAtom abcOP_add(MethodEnv*, int32_t, ScriptObject*);'
p878
I2
sS'template QNameObject* abcOP_getslot_nonc(MethodEnv*, char*, ScriptObject*);'
p879
I270
sS'template LLVMBool abcOP_not(MethodEnv*, int32_t);'
p880
I61
sS'template double abcOP_add(MethodEnv*, int32_t, double);'
p881
I497
sS'template void abcOP_pushscope(MethodEnv*, Namespace*);'
p882
I8478
sS'template uint32_t abcOP_getproperty_nonc(MethodEnv*, LLVMMultinamePtrMaybeInt, double, LLVMUnusedParam, ArrayObject*);'
p883
I1
sS'template double abcOP_getproperty(MethodEnv*, Multiname*, ScriptObject*, LLVMUnusedParam, ScriptObject*);'
p884
I2
sS'template LLVMBool abcOP_istypelate(MethodEnv*, LLVMBool, ScriptObject*);'
p885
I19
sS'template LLVMBool abcOP_greaterequals(MethodEnv*, double, uint32_t);'
p886
I7
sS'template void abcOP_setproperty_nonc(MethodEnv*, Multiname*, String*, LLVMUnusedParam, ScriptObject*, String*);'
p887
I149
sS'template LLVMAtom abcOP_getproperty(MethodEnv*, Multiname*, ScriptObject*, LLVMUnusedParam, ScriptObject*);'
p888
I498
sS'template LLVMBool abcOP_equals(MethodEnv*, int32_t, double);'
p889
I2650
sS'template LLVMBool abcOP_lessequals(MethodEnv*, LLVMAtom, String*);'
p890
I32
sS'template LLVMBool abcOP_greaterthan(MethodEnv*, uint32_t, int32_t);'
p891
I26955
sS'template void abcOP_setproperty_nonc(MethodEnv*, LLVMMultinamePtrMaybeInt, uint32_t, LLVMUnusedParam, LLVMAtom, ScriptObject*);'
p892
I1
sS'template LLVMBool abcOP_deleteproperty(MethodEnv*, Multiname*, LLVMUnusedParam, LLVMUnusedParam, String*);'
p893
I3
sS'template ScriptObject* abcOP_loadnull(MethodEnv*);'
p894
I320158
sS'template String* abcOP_add(MethodEnv*, uint32_t, String*);'
p895
I1
sS'template LLVMBool abcOP_equals(MethodEnv*, LLVMAtom, LLVMAtom);'
p896
I84211
sS'template LLVMAtom abcOP_String_indexOf(MethodEnv*, String*, ScriptObject*);'
p897
I1
sS'template LLVMBool abcOP_strictequals(MethodEnv*, int32_t, double);'
p898
I40
sS'template int32_t abcOP_sxi1(MethodEnv*, int32_t);'
p899
I1
sS'template LLVMBool abcOP_in(MethodEnv*, String*, LLVMAtom);'
p900
I14606
sS'template LLVMBool abcOP_strictequals(MethodEnv*, double, double);'
p901
I115
sS'template void abcOP_setproperty(MethodEnv*, LLVMMultinamePtrMaybeInt, double, LLVMUnusedParam, ScriptObject*, String*);'
p902
I1
sS'template void abcOP_setproperty_nonc(MethodEnv*, LLVMMultinamePtrMaybeInt, double, LLVMUnusedParam, ArrayObject*, ArrayObject*);'
p903
I1
sS'template LLVMBool abcOP_deleteproperty(MethodEnv*, Multiname*, ScriptObject*, LLVMUnusedParam, LLVMAtom);'
p904
I16
sS'template int32_t abcOP_bitxor(MethodEnv*, int32_t, int32_t);'
p905
I1010
sS'template void abcOP_setproperty_nonc(MethodEnv*, LLVMMultinamePtrMaybeInt, LLVMAtom, LLVMUnusedParam, ScriptObject*, int32_t);'
p906
I5
sS'template void abcOP_setproperty(MethodEnv*, LLVMMultinamePtrMaybeInt, LLVMAtom, LLVMUnusedParam, ScriptObject*, int32_t);'
p907
I47
sS'template LLVMBool abcOP_equals(MethodEnv*, ScriptObject*, ArrayObject*);'
p908
I41
sS'template LLVMBool abcOP_strictequals(MethodEnv*, double, String*);'
p909
I3
sS'template LLVMBool abcOP_lessthan(MethodEnv*, int32_t, uint32_t);'
p910
I2454
sS'template void abcOP_setproperty_nonc(MethodEnv*, Multiname*, String*, LLVMUnusedParam, ScriptObject*, LLVMAtom);'
p911
I152
sS'template String* abcOP_typeof(MethodEnv*, LLVMAtom);'
p912
I29252
sS'template LLVMAtom abcOP_getproperty_nonc(MethodEnv*, LLVMMultinamePtrMaybeInt, uint32_t, LLVMUnusedParam, ArrayObject*);'
p913
I28493
sS'template LLVMBool abcOP_greaterthan(MethodEnv*, ScriptObject*, LLVMAtom);'
p914
I12
sS'template double abcOP_divide(MethodEnv*, ScriptObject*, ScriptObject*);'
p915
I1
sS'template void abcOP_setproperty(MethodEnv*, LLVMMultinamePtrMaybeInt, double, LLVMUnusedParam, ArrayObject*, LLVMBool);'
p916
I194
sS'template String* abcOP_add(MethodEnv*, String*, String*);'
p917
I134432
sS'template void abcOP_setproperty_nonc(MethodEnv*, Multiname*, LLVMUnusedParam, LLVMUnusedParam, LLVMBool, LLVMBool);'
p918
I3
sS'template ScriptObject* abcOP_getproperty(MethodEnv*, LLVMMultinamePtrMaybeInt, int32_t, LLVMUnusedParam, ScriptObject*);'
p919
I1580
sS'template uint32_t abcOP_getproperty(MethodEnv*, LLVMMultinamePtrMaybeInt, LLVMAtom, LLVMUnusedParam, ScriptObject*);'
p920
I8
sS'template void abcOP_setproperty(MethodEnv*, Multiname*, String*, LLVMUnusedParam, ArrayObject*, String*);'
p921
I48
sS'template void abcOP_initproperty(MethodEnv*, Multiname*, String*, LLVMUnusedParam, ScriptObject*, ScriptObject*);'
p922
I2
sS'template double abcOP_add(MethodEnv*, double, double);'
p923
I36019
sS'template void abcOP_initproperty(MethodEnv*, Multiname*, LLVMUnusedParam, LLVMUnusedParam, LLVMAtom, String*);'
p924
I4
sS'template LLVMAtom abcOP_coerce_a(MethodEnv*, ArrayObject*);'
p925
I162589
sS'template void abcOP_setproperty_nonc(MethodEnv*, Multiname*, LLVMUnusedParam, LLVMUnusedParam, LLVMAtom, LLVMAtom);'
p926
I13505
sS'template void abcOP_setproperty(MethodEnv*, Multiname*, LLVMUnusedParam, LLVMUnusedParam, ArrayObject*, ArrayObject*);'
p927
I4
sS'template ScriptObject* abcOP_getproperty_nonc(MethodEnv*, LLVMMultinamePtrMaybeInt, uint32_t, LLVMUnusedParam, ScriptObject*);'
p928
I82
sS'template uint32_t abcOP_getslot(MethodEnv*, char*, ScriptObject*);'
p929
I193
sS'template void abcOP_initproperty(MethodEnv*, Multiname*, LLVMUnusedParam, LLVMUnusedParam, ScriptObject*, uint32_t);'
p930
I11862
sS'template LLVMBool abcOP_equals(MethodEnv*, double, ScriptObject*);'
p931
I3
sS'template double abcOP_add(MethodEnv*, int32_t, int32_t);'
p932
I1273
sS'template ScriptObject* abcOP_coerce(MethodEnv*, Traits**, ScriptObject*);'
p933
I3760
sS'template LLVMAtom abcOP_getproperty(MethodEnv*, Multiname*, String*, Namespace*, LLVMAtom);'
p934
I8
sS'template LLVMAtom abcOP_String_charCodeAt(MethodEnv*, String*, int32_t);'
p935
I6
sS'template double abcOP_getproperty(MethodEnv*, Multiname*, QNameObject*, LLVMUnusedParam, ScriptObject*);'
p936
I70
sS'template void abcOP_setproperty(MethodEnv*, Multiname*, QNameObject*, LLVMUnusedParam, ScriptObject*, LLVMAtom);'
p937
I2
sS'template void abcOP_setproperty(MethodEnv*, LLVMMultinamePtrMaybeInt, LLVMAtom, LLVMUnusedParam, ScriptObject*, double);'
p938
I9
sS'template void abcOP_setproperty_nonc(MethodEnv*, Multiname*, LLVMUnusedParam, LLVMUnusedParam, LLVMAtom, ArrayObject*);'
p939
I250
sS'template double abcOP_getproperty(MethodEnv*, LLVMMultinamePtrMaybeInt, LLVMAtom, LLVMUnusedParam, ArrayObject*);'
p940
I9
sS'template LLVMAtom abcOP_getsuper(MethodEnv*, Multiname*, String*, LLVMUnusedParam, ScriptObject*);'
p941
I2
sS'template void abcOP_setproperty_nonc(MethodEnv*, LLVMMultinamePtrMaybeInt, uint32_t, LLVMUnusedParam, ScriptObject*, uint32_t);'
p942
I2
sS'template String* abcOP_coerce_s(MethodEnv*, int32_t);'
p943
I7
sS'template uint32_t abcOP_getproperty_nonc(MethodEnv*, LLVMMultinamePtrMaybeInt, int32_t, LLVMUnusedParam, ArrayObject*);'
p944
I6
sS'template LLVMAtom abcOP_getproperty_nonc(MethodEnv*, LLVMMultinamePtrMaybeInt, int32_t, LLVMUnusedParam, LLVMAtom);'
p945
I3430
sS'template LLVMAtom abcOP_add(MethodEnv*, uint32_t, String*);'
p946
I1
sS'template LLVMAtom abcOP_getslot_nonc(MethodEnv*, char*, ScriptObject*);'
p947
I561098
sS'template void abcOP_si32(MethodEnv*, int32_t, int32_t);'
p948
I12535
sS'template void abcOP_setproperty(MethodEnv*, LLVMMultinamePtrMaybeInt, int32_t, LLVMUnusedParam, LLVMAtom, ScriptObject*);'
p949
I98
sS'template void abcOP_setproperty(MethodEnv*, LLVMMultinamePtrMaybeInt, double, LLVMUnusedParam, LLVMAtom, ScriptObject*);'
p950
I15
sS'template double abcOP_subtract(MethodEnv*, ScriptObject*, ScriptObject*);'
p951
I2340
sS'template LLVMBool abcOP_not(MethodEnv*, ArrayObject*);'
p952
I357
sS'template int32_t abcOP_convert_i(MethodEnv*, LLVMAtom);'
p953
I55958
sS'template LLVMBool abcOP_lessthan(MethodEnv*, String*, String*);'
p954
I24
sS'template void abcOP_setslot_nonc(MethodEnv*, char*, ScriptObject*, ScriptObject*);'
p955
I98497
sS'template LLVMAtom abcOP_getproperty_nonc(MethodEnv*, LLVMMultinamePtrMaybeInt, LLVMAtom, LLVMUnusedParam, LLVMAtom);'
p956
I16342
sS'template uint32_t abcOP_getproperty(MethodEnv*, LLVMMultinamePtrMaybeInt, int32_t, LLVMUnusedParam, ScriptObject*);'
p957
I7
sS'template LLVMBool abcOP_instanceof(MethodEnv*, QNameObject*, ScriptObject*);'
p958
I1
sS'template void abcOP_setproperty(MethodEnv*, Multiname*, LLVMUnusedParam, LLVMUnusedParam, LLVMAtom, String*);'
p959
I49290
sS'template String* abcOP_add(MethodEnv*, double, String*);'
p960
I44
sS'template LLVMAtom abcOP_getproperty(MethodEnv*, LLVMMultinamePtrMaybeInt, uint32_t, LLVMUnusedParam, ScriptObject*);'
p961
I43
sS'template LLVMBool abcOP_lessequals(MethodEnv*, LLVMAtom, double);'
p962
I28
sS'template LLVMAtom abcOP_getproperty(MethodEnv*, LLVMMultinamePtrMaybeInt, double, LLVMUnusedParam, LLVMAtom);'
p963
I402
sS'template LLVMBool abcOP_strictequals(MethodEnv*, LLVMAtom, ScriptObject*);'
p964
I28615
sS'template LLVMBool abcOP_equals(MethodEnv*, ArrayObject*, ArrayObject*);'
p965
I45
sS'template String* abcOP_callsuper(MethodEnv*, Multiname*, LLVMUnusedParam, LLVMUnusedParam, uint32_t, ...);'
p966
I1
sS'template void abcOP_setproperty(MethodEnv*, LLVMMultinamePtrMaybeInt, int32_t, LLVMUnusedParam, ArrayObject*, ScriptObject*);'
p967
I3332
sS'template void abcOP_setproperty(MethodEnv*, Multiname*, ScriptObject*, LLVMUnusedParam, ScriptObject*, double);'
p968
I6
sS'template void abcOP_initproperty(MethodEnv*, Multiname*, LLVMUnusedParam, LLVMUnusedParam, ScriptObject*, String*);'
p969
I2844
sS'template void abcOP_pushscope(MethodEnv*, ScriptObject*);'
p970
I1728338
sS'template LLVMBool abcOP_strictequals(MethodEnv*, LLVMAtom, String*);'
p971
I5798
sS'template int32_t abcOP_sxi16(MethodEnv*, int32_t);'
p972
I310
sS'template ScriptObject* abcOP_astypelate(MethodEnv*, ScriptObject*, ScriptObject*);'
p973
I3332
sS'template LLVMAtom abcOP_String_replace(MethodEnv*, String*, String*, ScriptObject*);'
p974
I1
sS'template LLVMBool abcOP_istypelate(MethodEnv*, double, String*);'
p975
I1
sS'template void abcOP_pushscope(MethodEnv*, int32_t);'
p976
I16957
sS'template LLVMBool abcOP_equals(MethodEnv*, LLVMBool, LLVMAtom);'
p977
I12
sS'template void abcOP_sf32(MethodEnv*, double, int32_t);'
p978
I11
sS'template LLVMAtom abcOP_add(MethodEnv*, String*, int32_t);'
p979
I40
sS'template void abcOP_setproperty(MethodEnv*, Multiname*, ScriptObject*, LLVMUnusedParam, ScriptObject*, LLVMBool);'
p980
I37
sS'template LLVMBool abcOP_deleteproperty(MethodEnv*, Multiname*, ArrayObject*, LLVMUnusedParam, ScriptObject*);'
p981
I1
sS'template void abcOP_setproperty(MethodEnv*, Multiname*, String*, LLVMUnusedParam, LLVMAtom, LLVMBool);'
p982
I169
sS'template ArrayObject* abcOP_coerce(MethodEnv*, Traits**, LLVMAtom);'
p983
I19321
sS'template LLVMBool abcOP_istypelate(MethodEnv*, LLVMAtom, ScriptObject*);'
p984
I7791
sS'template LLVMBool abcOP_not(MethodEnv*, LLVMBool);'
p985
I95219
sS'template LLVMBool abcOP_equals(MethodEnv*, String*, ScriptObject*);'
p986
I3383
sS'template ArrayObject* abcOP_String_split(MethodEnv*, String*, LLVMAtom, LLVMAtom);'
p987
I1031
sS'template double abcOP_subtract(MethodEnv*, int32_t, uint32_t);'
p988
I57
sS'template void abcOP_dxnslate(MethodEnv*, AOTMethodFrame*, LLVMBool);'
p989
I3
sS'template double abcOP_multiply(MethodEnv*, int32_t, double);'
p990
I3634
sS'template LLVMBool abcOP_lessequals(MethodEnv*, String*, LLVMAtom);'
p991
I1
sS'template double abcOP_getslot(MethodEnv*, char*, ScriptObject*);'
p992
I9736
sS'template LLVMAtom abcOP_findpropstrict(MethodEnv*, Multiname*, LLVMUnusedParam, LLVMUnusedParam, LLVMAtom*, int32_t, int32_t);'
p993
I114226
sS'template void abcOP_setproperty(MethodEnv*, LLVMMultinamePtrMaybeInt, uint32_t, LLVMUnusedParam, ArrayObject*, int32_t);'
p994
I19
sS'template void abcOP_setproperty_nonc(MethodEnv*, Multiname*, LLVMUnusedParam, LLVMUnusedParam, ScriptObject*, ArrayObject*);'
p995
I13
sS'template LLVMBool abcOP_equals(MethodEnv*, LLVMAtom, uint32_t);'
p996
I595
sS'template LLVMBool abcOP_strictequals(MethodEnv*, ScriptObject*, LLVMAtom);'
p997
I91
sS'template LLVMBool abcOP_equals(MethodEnv*, String*, double);'
p998
I2
sS'template ScriptObject* abcOP_getglobalscope(MethodEnv*);'
p999
I360870
sS'template void abcOP_setproperty_nonc(MethodEnv*, LLVMMultinamePtrMaybeInt, int32_t, LLVMUnusedParam, ArrayObject*, uint32_t);'
p1000
I70
sS'template void abcOP_setproperty_nonc(MethodEnv*, Multiname*, LLVMUnusedParam, LLVMUnusedParam, ScriptObject*, LLVMAtom);'
p1001
I36901
sS'template LLVMAtom abcOP_getproperty_nonc(MethodEnv*, Multiname*, LLVMUnusedParam, LLVMUnusedParam, String*);'
p1002
I10
sS'template LLVMBool abcOP_callproperty(MethodEnv*, Multiname*, LLVMUnusedParam, LLVMUnusedParam, ScriptObject*, uint32_t, ...);'
p1003
I6
sS'template double abcOP_divide(MethodEnv*, double, double);'
p1004
I11684
sS'template String* abcOP_coerce_s(MethodEnv*, ScriptObject*);'
p1005
I14
sS'template void abcOP_setproperty(MethodEnv*, LLVMMultinamePtrMaybeInt, LLVMAtom, LLVMUnusedParam, ScriptObject*, ArrayObject*);'
p1006
I1
sS'template void abcOP_setproperty(MethodEnv*, Multiname*, String*, LLVMUnusedParam, ArrayObject*, LLVMAtom);'
p1007
I2
sS'template LLVMAtom abcOP_getproperty_nonc(MethodEnv*, LLVMMultinamePtrMaybeInt, double, LLVMUnusedParam, LLVMAtom);'
p1008
I89
sS'template LLVMAtom abcOP_coerce_a(MethodEnv*, String*);'
p1009
I194535
sS'template void abcOP_setproperty_nonc(MethodEnv*, Multiname*, LLVMUnusedParam, LLVMUnusedParam, LLVMAtom, int32_t);'
p1010
I9765
sS'template void abcOP_setproperty_nonc(MethodEnv*, Multiname*, LLVMUnusedParam, Namespace*, ScriptObject*, LLVMBool);'
p1011
I10
sS'template ArrayObject* abcOP_getslot(MethodEnv*, char*, ScriptObject*);'
p1012
I1286
sS'template LLVMAtom abcOP_coerce_a(MethodEnv*, uint32_t);'
p1013
I29345
sS'template LLVMBool abcOP_equals(MethodEnv*, uint32_t, double);'
p1014
I2859
sS'template LLVMBool abcOP_lessthan(MethodEnv*, ScriptObject*, ScriptObject*);'
p1015
I7
sS'template String* abcOP_getproperty_nonc(MethodEnv*, LLVMMultinamePtrMaybeInt, int32_t, LLVMUnusedParam, ScriptObject*);'
p1016
I62
sS'template LLVMAtom abcOP_astypelate(MethodEnv*, ScriptObject*, ScriptObject*);'
p1017
I243
sS'template LLVMAtom abcOP_upcast(MethodEnv*, double);'
p1018
I1082
sS'template double abcOP_modulo(MethodEnv*, String*, ScriptObject*);'
p1019
I1
sS'template void abcOP_setproperty(MethodEnv*, LLVMMultinamePtrMaybeInt, LLVMAtom, LLVMUnusedParam, ArrayObject*, String*);'
p1020
I10
sS'template ScriptObject* abcOP_getproperty_nonc(MethodEnv*, Multiname*, LLVMUnusedParam, LLVMUnusedParam, String*);'
p1021
I18
sS'template LLVMAtom abcOP_String_split(MethodEnv*, String*, String*);'
p1022
I14
sS'template void abcOP_setproperty_nonc(MethodEnv*, Multiname*, LLVMUnusedParam, LLVMUnusedParam, double, LLVMAtom);'
p1023
I7
sS'template LLVMBool abcOP_convert_b(MethodEnv*, uint32_t);'
p1024
I5896
sS'template LLVMBool abcOP_greaterthan(MethodEnv*, LLVMAtom, int32_t);'
p1025
I22627
sS'template void abcOP_setproperty(MethodEnv*, Multiname*, String*, LLVMUnusedParam, ScriptObject*, uint32_t);'
p1026
I2
sS'template String* abcOP_astypelate(MethodEnv*, ScriptObject*, ScriptObject*);'
p1027
I14
sS'template void abcOP_setproperty_nonc(MethodEnv*, Multiname*, LLVMUnusedParam, LLVMUnusedParam, LLVMAtom, ScriptObject*);'
p1028
I8474
sS'template LLVMAtom abcOP_astypelate(MethodEnv*, LLVMBool, ScriptObject*);'
p1029
I22
sS'template int32_t abcOP_getproperty(MethodEnv*, LLVMMultinamePtrMaybeInt, int32_t, LLVMUnusedParam, ArrayObject*);'
p1030
I151
sS'template LLVMAtom abcOP_String_replace(MethodEnv*, String*, String*, String*);'
p1031
I5
sS'template double abcOP_getproperty(MethodEnv*, LLVMMultinamePtrMaybeInt, double, LLVMUnusedParam, LLVMAtom);'
p1032
I68
sS'template double abcOP_multiply(MethodEnv*, LLVMAtom, LLVMBool);'
p1033
I1
sS'template LLVMBool abcOP_greaterthan(MethodEnv*, int32_t, int32_t);'
p1034
I4391
sS'template double abcOP_increment(MethodEnv*, ScriptObject*);'
p1035
I4
sS'template void abcOP_setproperty_nonc(MethodEnv*, Multiname*, String*, LLVMUnusedParam, ScriptObject*, ScriptObject*);'
p1036
I52
sS'template void abcOP_setproperty(MethodEnv*, LLVMMultinamePtrMaybeInt, int32_t, LLVMUnusedParam, ScriptObject*, String*);'
p1037
I12
sS'template ArrayObject* abcOP_constructprop(MethodEnv*, Multiname*, LLVMUnusedParam, LLVMUnusedParam, uint32_t, ...);'
p1038
I9801
sS'template LLVMAtom abcOP_String_charAt(MethodEnv*, String*, LLVMAtom);'
p1039
I1
sS'template LLVMBool abcOP_greaterequals(MethodEnv*, LLVMAtom, LLVMBool);'
p1040
I1
sS'template double abcOP_subtract(MethodEnv*, ScriptObject*, LLVMAtom);'
p1041
I36
sS'template void abcOP_setproperty_nonc(MethodEnv*, LLVMMultinamePtrMaybeInt, uint32_t, LLVMUnusedParam, ScriptObject*, int32_t);'
p1042
I10
sS'template void abcOP_setproperty_nonc(MethodEnv*, LLVMMultinamePtrMaybeInt, double, LLVMUnusedParam, ArrayObject*, LLVMAtom);'
p1043
I80
sS'template void abcOP_checkfilter(MethodEnv*, LLVMAtom);'
p1044
I329
sS'template LLVMBool abcOP_istypelate(MethodEnv*, uint32_t, ScriptObject*);'
p1045
I2
sS'template void abcOP_setproperty(MethodEnv*, Multiname*, LLVMUnusedParam, Namespace*, LLVMAtom, String*);'
p1046
I13
sS'template LLVMAtom abcOP_getproperty(MethodEnv*, LLVMMultinamePtrMaybeInt, int32_t, LLVMUnusedParam, ArrayObject*);'
p1047
I15014
sS'template double abcOP_getproperty_nonc(MethodEnv*, Multiname*, String*, LLVMUnusedParam, ScriptObject*);'
p1048
I5
sS'template LLVMBool abcOP_lessthan(MethodEnv*, uint32_t, double);'
p1049
I59
sS'template LLVMBool abcOP_greaterthan(MethodEnv*, String*, String*);'
p1050
I22
sS'template void abcOP_setproperty(MethodEnv*, LLVMMultinamePtrMaybeInt, uint32_t, LLVMUnusedParam, ScriptObject*, LLVMAtom);'
p1051
I54
sS'template ArrayObject* abcOP_newarray(MethodEnv*, char*, ...);'
p1052
I1661
sS'template double abcOP_getproperty(MethodEnv*, Multiname*, String*, LLVMUnusedParam, LLVMAtom);'
p1053
I81
sS'template void abcOP_setproperty_nonc(MethodEnv*, LLVMMultinamePtrMaybeInt, LLVMAtom, LLVMUnusedParam, LLVMAtom, int32_t);'
p1054
I20
sS'template void abcOP_setproperty_nonc(MethodEnv*, LLVMMultinamePtrMaybeInt, int32_t, LLVMUnusedParam, ArrayObject*, ScriptObject*);'
p1055
I1280
sS'template LLVMAtom abcOP_getproperty(MethodEnv*, LLVMMultinamePtrMaybeInt, uint32_t, LLVMUnusedParam, ArrayObject*);'
p1056
I15425
sS'template void abcOP_setproperty_nonc(MethodEnv*, Multiname*, String*, LLVMUnusedParam, ScriptObject*, ArrayObject*);'
p1057
I58
sS'template void abcOP_setproperty_nonc(MethodEnv*, LLVMMultinamePtrMaybeInt, uint32_t, LLVMUnusedParam, ArrayObject*, double);'
p1058
I19
sS'template LLVMBool abcOP_equals(MethodEnv*, LLVMAtom, ArrayObject*);'
p1059
I478
sS'template LLVMAtom abcOP_coerce_a(MethodEnv*, double);'
p1060
I319853
sS'template double abcOP_multiply(MethodEnv*, double, int32_t);'
p1061
I1894
sS'template String* abcOP_convert_s(MethodEnv*, LLVMAtom);'
p1062
I75130
sS'template void abcOP_setproperty(MethodEnv*, LLVMMultinamePtrMaybeInt, LLVMAtom, LLVMUnusedParam, LLVMAtom, ArrayObject*);'
p1063
I17
sS'template LLVMBool abcOP_greaterequals(MethodEnv*, LLVMAtom, int32_t);'
p1064
I8726
sS'template LLVMAtom abcOP_findproperty(MethodEnv*, Multiname*, String*, LLVMUnusedParam, LLVMAtom*, int32_t, int32_t);'
p1065
I5
sS'template double abcOP_subtract(MethodEnv*, int32_t, int32_t);'
p1066
I986
sS'template double abcOP_divide(MethodEnv*, LLVMAtom, LLVMAtom);'
p1067
I18993
sS'template ScriptObject* abcOP_newcatch(MethodEnv*, int32_t, char*);'
p1068
I17411
sS'template int32_t abcOP_rshift(MethodEnv*, int32_t, int32_t);'
p1069
I2195
sS'template void abcOP_setproperty_nonc(MethodEnv*, LLVMMultinamePtrMaybeInt, LLVMAtom, LLVMUnusedParam, ArrayObject*, double);'
p1070
I6
sS'template String* abcOP_constructprop(MethodEnv*, Multiname*, LLVMUnusedParam, LLVMUnusedParam, uint32_t, ...);'
p1071
I778
sS'template double abcOP_modulo(MethodEnv*, ScriptObject*, int32_t);'
p1072
I1
sS'template void abcOP_dxnslate(MethodEnv*, AOTMethodFrame*, String*);'
p1073
I92
sS'template double abcOP_getproperty(MethodEnv*, LLVMMultinamePtrMaybeInt, double, LLVMUnusedParam, ArrayObject*);'
p1074
I6
sS'template LLVMAtom abcOP_callproperty(MethodEnv*, Multiname*, LLVMUnusedParam, LLVMUnusedParam, int32_t, uint32_t, ...);'
p1075
I5
sS'template LLVMBool abcOP_strictequals(MethodEnv*, LLVMAtom, uint32_t);'
p1076
I5652
sS'template void abcOP_setproperty_nonc(MethodEnv*, Multiname*, String*, LLVMUnusedParam, LLVMAtom, String*);'
p1077
I249
sS'template void abcOP_pushscope(MethodEnv*, QNameObject*);'
p1078
I8478
sS'template void abcOP_setproperty_nonc(MethodEnv*, Multiname*, LLVMUnusedParam, LLVMUnusedParam, ArrayObject*, double);'
p1079
I1
sS'template double abcOP_convert_d(MethodEnv*, int32_t);'
p1080
I78552
sS'template LLVMBool abcOP_equals(MethodEnv*, int32_t, ScriptObject*);'
p1081
I3
sS'template int32_t abcOP_true(MethodEnv*, QNameObject*);'
p1082
I3
sS'template LLVMAtom abcOP_add(MethodEnv*, String*, uint32_t);'
p1083
I1
sS'template void abcOP_initproperty(MethodEnv*, Multiname*, LLVMUnusedParam, LLVMUnusedParam, ScriptObject*, LLVMAtom);'
p1084
I1185
sS'template LLVMBool abcOP_deleteproperty(MethodEnv*, Multiname*, String*, LLVMUnusedParam, LLVMAtom);'
p1085
I449
sS'template uint32_t abcOP_convert_u(MethodEnv*, ScriptObject*);'
p1086
I91
sS'template double abcOP_divide(MethodEnv*, LLVMAtom, LLVMBool);'
p1087
I1
sS'template String* abcOP_String_substr(MethodEnv*, String*, double, double);'
p1088
I4029
sS'template LLVMAtom abcOP_construct(MethodEnv*, ScriptObject*, char*, ...);'
p1089
I8
sS'template LLVMBool abcOP_greaterthan(MethodEnv*, double, int32_t);'
p1090
I1684
sS'template int32_t abcOP_String_indexOf(MethodEnv*, String*, String*, double);'
p1091
I4278
sS'template void abcOP_setslot_nonc(MethodEnv*, char*, ScriptObject*, double);'
p1092
I139034
sS'template LLVMAtom abcOP_coerce_a(MethodEnv*, int32_t);'
p1093
I230938
sS'template int32_t* abcOP_handlerFromMethodEnv(MethodEnv*, Namespace*);'
p1094
I8494
sS'template LLVMBool abcOP_deleteproperty(MethodEnv*, LLVMMultinamePtrMaybeInt, LLVMAtom, LLVMUnusedParam, LLVMAtom);'
p1095
I109
sS'template void abcOP_setproperty(MethodEnv*, Multiname*, String*, LLVMUnusedParam, LLVMAtom, String*);'
p1096
I1215
sS'template int32_t abcOP_getslot_nonc(MethodEnv*, char*, ScriptObject*);'
p1097
I116372
sS'template double abcOP_callproperty(MethodEnv*, Multiname*, LLVMUnusedParam, LLVMUnusedParam, ScriptObject*, uint32_t, ...);'
p1098
I5
sS'template MethodEnv* abcOP_methodEnvFromDispId(MethodEnv*, LLVMAtom, int32_t);'
p1099
I465
sS'template LLVMBool abcOP_not(MethodEnv*, uint32_t);'
p1100
I5696
sS'template LLVMBool abcOP_equals(MethodEnv*, double, String*);'
p1101
I10
sS'template LLVMAtom abcOP_astype(MethodEnv*, LLVMMultinameIndex, int32_t);'
p1102
I2
sS'template double abcOP_getproperty_nonc(MethodEnv*, LLVMMultinamePtrMaybeInt, uint32_t, LLVMUnusedParam, LLVMAtom);'
p1103
I1
sS'template double abcOP_modulo(MethodEnv*, int32_t, ScriptObject*);'
p1104
I1
sS'template LLVMBool abcOP_in(MethodEnv*, double, LLVMAtom);'
p1105
I3
sS'template LLVMAtom abcOP_box(MethodEnv*, Namespace*);'
p1106
I11304
sS'template LLVMBool abcOP_greaterequals(MethodEnv*, LLVMAtom, double);'
p1107
I468
sS'template ScriptObject* abcOP_getsuper(MethodEnv*, Multiname*, LLVMUnusedParam, LLVMUnusedParam, ScriptObject*);'
p1108
I26
sS'template void abcOP_setproperty_nonc(MethodEnv*, LLVMMultinamePtrMaybeInt, LLVMAtom, LLVMUnusedParam, LLVMAtom, LLVMAtom);'
p1109
I25988
sS'template LLVMAtom abcOP_add(MethodEnv*, double, ScriptObject*);'
p1110
I1
sS'template double abcOP_convert_d(MethodEnv*, ScriptObject*);'
p1111
I54
sS'template int32_t abcOP_lshift(MethodEnv*, int32_t, int32_t);'
p1112
I3084
sS'template void abcOP_setproperty(MethodEnv*, LLVMMultinamePtrMaybeInt, LLVMAtom, LLVMUnusedParam, ArrayObject*, LLVMAtom);'
p1113
I9
sS'template LLVMBool abcOP_greaterequals(MethodEnv*, ScriptObject*, LLVMAtom);'
p1114
I6
sS'template LLVMBool abcOP_istype(MethodEnv*, Traits**, LLVMBool);'
p1115
I14
sS'template void abcOP_setproperty(MethodEnv*, LLVMMultinamePtrMaybeInt, int32_t, LLVMUnusedParam, ScriptObject*, double);'
p1116
I108
sS'template LLVMBool abcOP_istypelate(MethodEnv*, LLVMAtom, LLVMAtom);'
p1117
I5657
sS'template double abcOP_getproperty_nonc(MethodEnv*, LLVMMultinamePtrMaybeInt, LLVMAtom, LLVMUnusedParam, LLVMAtom);'
p1118
I18770
sS'template LLVMBool abcOP_greaterthan(MethodEnv*, double, double);'
p1119
I4567
sS'template LLVMBool abcOP_equals(MethodEnv*, uint32_t, uint32_t);'
p1120
I23850
sS'template void abcOP_setproperty(MethodEnv*, Multiname*, LLVMUnusedParam, LLVMUnusedParam, String*, int32_t);'
p1121
I2
sS'template LLVMAtom abcOP_callproperty(MethodEnv*, Multiname*, LLVMUnusedParam, LLVMUnusedParam, double, uint32_t, ...);'
p1122
I2929
sS'template void abcOP_setproperty(MethodEnv*, Multiname*, LLVMAtom, LLVMUnusedParam, LLVMAtom, String*);'
p1123
I1
sS'template void abcOP_setproperty_nonc(MethodEnv*, Multiname*, int32_t, LLVMUnusedParam, int32_t, int32_t);'
p1124
I1
sS'template LLVMAtom abcOP_add(MethodEnv*, LLVMAtom, double);'
p1125
I50118
sS'template LLVMAtom abcOP_call(MethodEnv*, LLVMAtom, char*, ...);'
p1126
I20
sS'template double abcOP_modulo(MethodEnv*, uint32_t, int32_t);'
p1127
I26
sS'template void abcOP_pushscope(MethodEnv*, LLVMBool);'
p1128
I8478
sS'template LLVMBool abcOP_in(MethodEnv*, LLVMAtom, ScriptObject*);'
p1129
I23
sS'template LLVMBool abcOP_convert_b(MethodEnv*, LLVMAtom);'
p1130
I73079
sS'template ScriptObject* abcOP_convert_o(MethodEnv*, ScriptObject*);'
p1131
I2
sS'template LLVMBool abcOP_convert_b(MethodEnv*, Namespace*);'
p1132
I3
sS'template LLVMBool abcOP_getproperty(MethodEnv*, LLVMMultinamePtrMaybeInt, int32_t, LLVMUnusedParam, ScriptObject*);'
p1133
I25
sS'template LLVMAtom abcOP_getproperty_nonc(MethodEnv*, Multiname*, int32_t, LLVMUnusedParam, String*);'
p1134
I1
sS'template void abcOP_setproperty(MethodEnv*, Multiname*, LLVMUnusedParam, Namespace*, ScriptObject*, LLVMBool);'
p1135
I3
sS'template String* abcOP_xarg(MethodEnv*, ExceptionFrame*);'
p1136
I4
sS'template LLVMAtom abcOP_getproperty(MethodEnv*, Multiname*, LLVMUnusedParam, Namespace*, LLVMAtom);'
p1137
I733
sS'template int32_t abcOP_bitand(MethodEnv*, int32_t, int32_t);'
p1138
I4762
sS'template LLVMAtom abcOP_astype(MethodEnv*, LLVMMultinameIndex, String*);'
p1139
I1
sS'template void abcOP_setslot_nonc(MethodEnv*, char*, ScriptObject*, LLVMBool);'
p1140
I182364
sS'template double abcOP_negate(MethodEnv*, ScriptObject*);'
p1141
I1
sS'template void abcOP_setslot(MethodEnv*, char*, ScriptObject*, ArrayObject*);'
p1142
I129
sS'template void abcOP_setproperty_nonc(MethodEnv*, Multiname*, ScriptObject*, LLVMUnusedParam, ScriptObject*, ScriptObject*);'
p1143
I2
sS'template void abcOP_initproperty(MethodEnv*, Multiname*, LLVMUnusedParam, LLVMUnusedParam, ArrayObject*, uint32_t);'
p1144
I5652
sS'template double abcOP_decrement(MethodEnv*, LLVMAtom);'
p1145
I8376
sS'template void abcOP_setproperty_nonc(MethodEnv*, LLVMMultinamePtrMaybeInt, int32_t, LLVMUnusedParam, ScriptObject*, LLVMBool);'
p1146
I1
sS'template LLVMAtom abcOP_box(MethodEnv*, double);'
p1147
I20274
sS'template double abcOP_divide(MethodEnv*, LLVMAtom, uint32_t);'
p1148
I10
sS'template void abcOP_pushscope(MethodEnv*, uint32_t);'
p1149
I16956
sS'template LLVMAtom abcOP_applytype(MethodEnv*, ScriptObject*, uint32_t, ...);'
p1150
I2828
sS'template double abcOP_add(MethodEnv*, uint32_t, int32_t);'
p1151
I222
sS'template LLVMBool abcOP_constructprop(MethodEnv*, Multiname*, LLVMUnusedParam, LLVMUnusedParam, uint32_t, ...);'
p1152
I2734
sS'template LLVMBool abcOP_lessequals(MethodEnv*, LLVMAtom, int32_t);'
p1153
I2939
sS'template uint32_t abcOP_getproperty(MethodEnv*, Multiname*, LLVMUnusedParam, LLVMUnusedParam, LLVMAtom);'
p1154
I56
sS'template LLVMBool abcOP_strictequals(MethodEnv*, int32_t, String*);'
p1155
I6
sS'template ScriptObject* abcOP_astypelate(MethodEnv*, LLVMAtom, ScriptObject*);'
p1156
I2672
sS'template String* abcOP_add(MethodEnv*, String*, int32_t);'
p1157
I993
sS'template void abcOP_setproperty_nonc(MethodEnv*, LLVMMultinamePtrMaybeInt, double, LLVMUnusedParam, ScriptObject*, double);'
p1158
I7
sS'template LLVMAtom abcOP_getproperty(MethodEnv*, Multiname*, LLVMUnusedParam, Namespace*, ScriptObject*);'
p1159
I541
sS'template LLVMBool abcOP_lessequals(MethodEnv*, int32_t, double);'
p1160
I59
sS'template int32_t abcOP_getproperty(MethodEnv*, Multiname*, LLVMUnusedParam, LLVMUnusedParam, LLVMAtom);'
p1161
I363
sS'template MethodEnv* abcOP_methodEnvFromDispId(MethodEnv*, ScriptObject*, int32_t);'
p1162
I1209789
sS'template LLVMAtom abcOP_getproperty_nonc(MethodEnv*, LLVMMultinamePtrMaybeInt, uint32_t, LLVMUnusedParam, LLVMAtom);'
p1163
I5695
sS'template double abcOP_convert_d(MethodEnv*, ArrayObject*);'
p1164
I2
sS'template LLVMBool abcOP_equals(MethodEnv*, double, int32_t);'
p1165
I18224
sS'template void abcOP_checkfilter(MethodEnv*, ScriptObject*);'
p1166
I71
sS'template void abcOP_setproperty_nonc(MethodEnv*, LLVMMultinamePtrMaybeInt, double, LLVMUnusedParam, ArrayObject*, uint32_t);'
p1167
I10
sS'template String* abcOP_upcast(MethodEnv*, ScriptObject*);'
p1168
I13756
sS'template LLVMAtom abcOP_astype(MethodEnv*, LLVMMultinameIndex, uint32_t);'
p1169
I1
sS'template double abcOP_modulo(MethodEnv*, int32_t, uint32_t);'
p1170
I36
sS'template double abcOP_lf64(MethodEnv*, int32_t);'
p1171
I99
sS'template void abcOP_setproperty_nonc(MethodEnv*, Multiname*, LLVMUnusedParam, LLVMUnusedParam, ScriptObject*, LLVMBool);'
p1172
I67
sS'template LLVMAtom abcOP_box(MethodEnv*, int32_t);'
p1173
I29172
sS'template void abcOP_setproperty(MethodEnv*, LLVMMultinamePtrMaybeInt, uint32_t, LLVMUnusedParam, ArrayObject*, uint32_t);'
p1174
I57
sS'template void abcOP_setproperty(MethodEnv*, LLVMMultinamePtrMaybeInt, double, LLVMUnusedParam, LLVMAtom, uint32_t);'
p1175
I5
sS'template void abcOP_setproperty(MethodEnv*, Multiname*, ScriptObject*, LLVMUnusedParam, LLVMAtom, String*);'
p1176
I4
sS'template int32_t abcOP_getproperty(MethodEnv*, LLVMMultinamePtrMaybeInt, int32_t, LLVMUnusedParam, LLVMAtom);'
p1177
I55
sS'template ScriptObject* abcOP_upcast(MethodEnv*, ScriptObject*);'
p1178
I120278
sS'template String* abcOP_convert_s(MethodEnv*, double);'
p1179
I223
sS'template Namespace* abcOP_constructprop(MethodEnv*, Multiname*, LLVMUnusedParam, LLVMUnusedParam, uint32_t, ...);'
p1180
I147
sS'template double abcOP_multiply(MethodEnv*, uint32_t, LLVMAtom);'
p1181
I7
sS'template LLVMBool abcOP_in(MethodEnv*, LLVMAtom, LLVMAtom);'
p1182
I75
sS'template LLVMBool abcOP_equals(MethodEnv*, double, LLVMAtom);'
p1183
I71
sS'template LLVMAtom abcOP_xarg(MethodEnv*, ExceptionFrame*);'
p1184
I61551
sS'template int32_t abcOP_getslot(MethodEnv*, char*, ScriptObject*);'
p1185
I22597
sS'template void abcOP_pushwith(MethodEnv*, double);'
p1186
I1
sS'template int32_t abcOP_true(MethodEnv*, uint32_t);'
p1187
I165
sS'template double abcOP_getproperty_nonc(MethodEnv*, LLVMMultinamePtrMaybeInt, double, LLVMUnusedParam, LLVMAtom);'
p1188
I8
sS'template LLVMAtom abcOP_getproperty_nonc(MethodEnv*, Multiname*, LLVMUnusedParam, LLVMUnusedParam, double);'
p1189
I11
sS'template LLVMAtom abcOP_add(MethodEnv*, String*, String*);'
p1190
I1445
sS'template String* abcOP_add(MethodEnv*, ScriptObject*, String*);'
p1191
I18
sS'template double abcOP_divide(MethodEnv*, LLVMAtom, double);'
p1192
I683
sS'template void abcOP_setproperty_nonc(MethodEnv*, LLVMMultinamePtrMaybeInt, int32_t, LLVMUnusedParam, ScriptObject*, int32_t);'
p1193
I50
sS'template String* abcOP_callproperty(MethodEnv*, Multiname*, LLVMUnusedParam, LLVMUnusedParam, ScriptObject*, uint32_t, ...);'
p1194
I3
sS'template int32_t abcOP_getproperty(MethodEnv*, LLVMMultinamePtrMaybeInt, double, LLVMUnusedParam, ScriptObject*);'
p1195
I26
sS'template void abcOP_setproperty(MethodEnv*, LLVMMultinamePtrMaybeInt, uint32_t, LLVMUnusedParam, ArrayObject*, String*);'
p1196
I5
sS'template LLVMAtom abcOP_add(MethodEnv*, int32_t, String*);'
p1197
I1
sS'template void abcOP_setproperty(MethodEnv*, Multiname*, LLVMUnusedParam, LLVMUnusedParam, ScriptObject*, String*);'
p1198
I5790
sS'template void abcOP_setproperty_nonc(MethodEnv*, LLVMMultinamePtrMaybeInt, int32_t, LLVMUnusedParam, LLVMAtom, LLVMBool);'
p1199
I117
sS'template LLVMBool abcOP_greaterequals(MethodEnv*, uint32_t, uint32_t);'
p1200
I285
sS'template void abcOP_setproperty(MethodEnv*, Multiname*, ScriptObject*, LLVMUnusedParam, LLVMAtom, LLVMBool);'
p1201
I8
sS'template LLVMBool abcOP_lessthan(MethodEnv*, uint32_t, LLVMAtom);'
p1202
I11492
sS'template double abcOP_Math_atan(MethodEnv*, double);'
p1203
I30
sS'template void abcOP_setproperty_nonc(MethodEnv*, LLVMMultinamePtrMaybeInt, int32_t, LLVMUnusedParam, LLVMAtom, int32_t);'
p1204
I869
sS'template int32_t abcOP_getproperty_nonc(MethodEnv*, LLVMMultinamePtrMaybeInt, uint32_t, LLVMUnusedParam, ArrayObject*);'
p1205
I7
sS'template void abcOP_setproperty(MethodEnv*, LLVMMultinamePtrMaybeInt, int32_t, LLVMUnusedParam, ScriptObject*, LLVMAtom);'
p1206
I91
sS'template void abcOP_setproperty(MethodEnv*, Multiname*, String*, LLVMUnusedParam, ScriptObject*, ArrayObject*);'
p1207
I9
sS'template void abcOP_pushscope(MethodEnv*, ArrayObject*);'
p1208
I45217
sS'template LLVMAtom abcOP_astypelate(MethodEnv*, LLVMAtom, String*);'
p1209
I1
sS'template double abcOP_modulo(MethodEnv*, double, uint32_t);'
p1210
I4
sS'template void abcOP_setproperty_nonc(MethodEnv*, LLVMMultinamePtrMaybeInt, int32_t, LLVMUnusedParam, ArrayObject*, ArrayObject*);'
p1211
I7
sS'template double abcOP_multiply(MethodEnv*, LLVMAtom, LLVMAtom);'
p1212
I65944
sS'template void abcOP_setproperty_nonc(MethodEnv*, Multiname*, String*, LLVMUnusedParam, ScriptObject*, LLVMBool);'
p1213
I91
sS'template LLVMAtom abcOP_add(MethodEnv*, uint32_t, ScriptObject*);'
p1214
I1
sS'template void abcOP_setproperty(MethodEnv*, LLVMMultinamePtrMaybeInt, LLVMAtom, LLVMUnusedParam, ArrayObject*, ScriptObject*);'
p1215
I13
sS'template void abcOP_setslot_nonc(MethodEnv*, char*, ScriptObject*, int32_t);'
p1216
I247119
sS'template LLVMAtom abcOP_add(MethodEnv*, ScriptObject*, double);'
p1217
I2
sS'template void abcOP_setproperty(MethodEnv*, LLVMMultinamePtrMaybeInt, uint32_t, LLVMUnusedParam, LLVMAtom, uint32_t);'
p1218
I2
sS'template LLVMBool abcOP_strictequals(MethodEnv*, String*, LLVMAtom);'
p1219
I20261
sS'template LLVMBool abcOP_greaterequals(MethodEnv*, LLVMBool, LLVMBool);'
p1220
I4
sS'template ScriptObject* abcOP_constructprop(MethodEnv*, Multiname*, LLVMUnusedParam, LLVMUnusedParam, uint32_t, ...);'
p1221
I36625
sS'template LLVMAtom abcOP_construct(MethodEnv*, ScriptObject*, uint32_t, ...);'
p1222
I58951
sS'template LLVMBool abcOP_instanceof(MethodEnv*, LLVMBool, ScriptObject*);'
p1223
I1
sS'template int32_t abcOP_convert_i(MethodEnv*, uint32_t);'
p1224
I186241
sS'template double abcOP_getproperty_nonc(MethodEnv*, Multiname*, ScriptObject*, LLVMUnusedParam, ScriptObject*);'
p1225
I1
s.